ARM GAS  C:\Users\Valentin\AppData\Local\Temp\cciQCDHf.s 			page 1


   1              		.cpu cortex-m4
   2              		.eabi_attribute 27, 1
   3              		.eabi_attribute 28, 1
   4              		.eabi_attribute 20, 1
   5              		.eabi_attribute 21, 1
   6              		.eabi_attribute 23, 3
   7              		.eabi_attribute 24, 1
   8              		.eabi_attribute 25, 1
   9              		.eabi_attribute 26, 1
  10              		.eabi_attribute 30, 2
  11              		.eabi_attribute 34, 1
  12              		.eabi_attribute 18, 4
  13              		.file	"actionUser.c"
  14              		.text
  15              	.Ltext0:
  16              		.cfi_sections	.debug_frame
  17              		.section	.text.blink_all_leds,"ax",%progbits
  18              		.align	1
  19              		.p2align 4,,15
  20              		.global	blink_all_leds
  21              		.syntax unified
  22              		.thumb
  23              		.thumb_func
  24              		.fpu fpv4-sp-d16
  25              		.type	blink_all_leds, %function
  26              	blink_all_leds:
  27              	.LFB259:
  28              		.file 1 "actionUser.c"
  29              		.loc 1 14 0
  30              		.cfi_startproc
  31              		@ args = 0, pretend = 0, frame = 8
  32              		@ frame_needed = 0, uses_anonymous_args = 0
  33              	.LVL0:
  34 0000 F0B5     		push	{r4, r5, r6, r7, lr}
  35              		.cfi_def_cfa_offset 20
  36              		.cfi_offset 4, -20
  37              		.cfi_offset 5, -16
  38              		.cfi_offset 6, -12
  39              		.cfi_offset 7, -8
  40              		.cfi_offset 14, -4
  41 0002 204F     		ldr	r7, .L14
  42 0004 83B0     		sub	sp, sp, #12
  43              		.cfi_def_cfa_offset 32
  44              		.loc 1 14 0
  45 0006 0646     		mov	r6, r0
  46 0008 3B68     		ldr	r3, [r7]
  47 000a 0193     		str	r3, [sp, #4]
  48              		.loc 1 15 0
  49 000c FFF7FEFF 		bl	clear_leds
  50              	.LVL1:
  51              		.loc 1 17 0
  52 0010 002E     		cmp	r6, #0
  53 0012 28DB     		blt	.L2
  54              		.loc 1 16 0
  55 0014 0025     		movs	r5, #0
  56              	.LVL2:
  57              	.L4:
ARM GAS  C:\Users\Valentin\AppData\Local\Temp\cciQCDHf.s 			page 2


  58 0016 0024     		movs	r4, #0
  59              	.L3:
  60              	.LVL3:
  61              	.LBB2:
  62              		.loc 1 19 0 discriminator 3
  63 0018 0121     		movs	r1, #1
  64 001a E0B2     		uxtb	r0, r4
  65 001c FFF7FEFF 		bl	set_led
  66              	.LVL4:
  67 0020 0134     		adds	r4, r4, #1
  68              	.LVL5:
  69              		.loc 1 20 0 discriminator 3
  70 0022 C820     		movs	r0, #200
  71 0024 FFF7FEFF 		bl	chThdSleep
  72              	.LVL6:
  73              		.loc 1 21 0 discriminator 3
  74 0028 FFF7FEFF 		bl	clear_leds
  75              	.LVL7:
  76              		.loc 1 18 0 discriminator 3
  77 002c 042C     		cmp	r4, #4
  78 002e F3D1     		bne	.L3
  79 0030 0135     		adds	r5, r5, #1
  80              	.LVL8:
  81 0032 6DB2     		sxtb	r5, r5
  82              	.LVL9:
  83              	.LBE2:
  84              		.loc 1 17 0
  85 0034 B542     		cmp	r5, r6
  86 0036 EEDD     		ble	.L4
  87              		.loc 1 25 0
  88 0038 0024     		movs	r4, #0
  89              	.LVL10:
  90              	.L5:
  91              		.loc 1 27 0
  92 003a 0120     		movs	r0, #1
  93 003c FFF7FEFF 		bl	set_body_led
  94              	.LVL11:
  95              		.loc 1 28 0
  96 0040 0020     		movs	r0, #0
  97 0042 FFF7FEFF 		bl	set_front_led
  98              	.LVL12:
  99              		.loc 1 29 0
 100 0046 C820     		movs	r0, #200
 101 0048 FFF7FEFF 		bl	chThdSleep
 102              	.LVL13:
 103              		.loc 1 30 0
 104 004c 0020     		movs	r0, #0
 105 004e FFF7FEFF 		bl	set_body_led
 106              	.LVL14:
 107 0052 0134     		adds	r4, r4, #1
 108              	.LVL15:
 109              		.loc 1 31 0
 110 0054 0120     		movs	r0, #1
 111 0056 FFF7FEFF 		bl	set_front_led
 112              	.LVL16:
 113 005a 64B2     		sxtb	r4, r4
 114              		.loc 1 32 0
ARM GAS  C:\Users\Valentin\AppData\Local\Temp\cciQCDHf.s 			page 3


 115 005c C820     		movs	r0, #200
 116 005e FFF7FEFF 		bl	chThdSleep
 117              	.LVL17:
 118              		.loc 1 26 0
 119 0062 B442     		cmp	r4, r6
 120 0064 E9DD     		ble	.L5
 121              	.LVL18:
 122              	.L2:
 123              		.loc 1 35 0
 124 0066 0020     		movs	r0, #0
 125 0068 FFF7FEFF 		bl	set_front_led
 126              	.LVL19:
 127              		.loc 1 36 0
 128 006c 019A     		ldr	r2, [sp, #4]
 129 006e 3B68     		ldr	r3, [r7]
 130 0070 9A42     		cmp	r2, r3
 131 0072 04D1     		bne	.L13
 132              		.loc 1 37 0
 133 0074 03B0     		add	sp, sp, #12
 134              		.cfi_remember_state
 135              		.cfi_def_cfa_offset 20
 136              		@ sp needed
 137 0076 BDE8F040 		pop	{r4, r5, r6, r7, lr}
 138              		.cfi_restore 14
 139              		.cfi_restore 7
 140              		.cfi_restore 6
 141              		.cfi_restore 5
 142              		.cfi_restore 4
 143              		.cfi_def_cfa_offset 0
 144              	.LVL20:
 145              		.loc 1 36 0
 146 007a FFF7FEBF 		b	clear_leds
 147              	.LVL21:
 148              	.L13:
 149              		.cfi_restore_state
 150 007e FFF7FEFF 		bl	__stack_chk_fail
 151              	.LVL22:
 152              	.L15:
 153 0082 00BF     		.align	2
 154              	.L14:
 155 0084 00000000 		.word	__stack_chk_guard
 156              		.cfi_endproc
 157              	.LFE259:
 158              		.size	blink_all_leds, .-blink_all_leds
 159              		.section	.text.leds_think,"ax",%progbits
 160              		.align	1
 161              		.p2align 4,,15
 162              		.global	leds_think
 163              		.syntax unified
 164              		.thumb
 165              		.thumb_func
 166              		.fpu fpv4-sp-d16
 167              		.type	leds_think, %function
 168              	leds_think:
 169              	.LFB260:
 170              		.loc 1 39 0
 171              		.cfi_startproc
ARM GAS  C:\Users\Valentin\AppData\Local\Temp\cciQCDHf.s 			page 4


 172              		@ args = 0, pretend = 0, frame = 8
 173              		@ frame_needed = 0, uses_anonymous_args = 0
 174              	.LVL23:
 175 0000 F0B5     		push	{r4, r5, r6, r7, lr}
 176              		.cfi_def_cfa_offset 20
 177              		.cfi_offset 4, -20
 178              		.cfi_offset 5, -16
 179              		.cfi_offset 6, -12
 180              		.cfi_offset 7, -8
 181              		.cfi_offset 14, -4
 182 0002 114F     		ldr	r7, .L25
 183 0004 83B0     		sub	sp, sp, #12
 184              		.cfi_def_cfa_offset 32
 185              		.loc 1 39 0
 186 0006 0646     		mov	r6, r0
 187 0008 3B68     		ldr	r3, [r7]
 188 000a 0193     		str	r3, [sp, #4]
 189              		.loc 1 40 0
 190 000c FFF7FEFF 		bl	clear_leds
 191              	.LVL24:
 192              		.loc 1 42 0
 193 0010 002E     		cmp	r6, #0
 194 0012 11DB     		blt	.L16
 195              		.loc 1 41 0
 196 0014 0025     		movs	r5, #0
 197              	.LVL25:
 198              	.L19:
 199 0016 0024     		movs	r4, #0
 200              	.L18:
 201              	.LVL26:
 202              	.LBB3:
 203              		.loc 1 44 0 discriminator 3
 204 0018 0121     		movs	r1, #1
 205 001a E0B2     		uxtb	r0, r4
 206 001c FFF7FEFF 		bl	set_led
 207              	.LVL27:
 208 0020 0134     		adds	r4, r4, #1
 209              	.LVL28:
 210              		.loc 1 45 0 discriminator 3
 211 0022 C820     		movs	r0, #200
 212 0024 FFF7FEFF 		bl	chThdSleep
 213              	.LVL29:
 214              		.loc 1 46 0 discriminator 3
 215 0028 FFF7FEFF 		bl	clear_leds
 216              	.LVL30:
 217              		.loc 1 43 0 discriminator 3
 218 002c 042C     		cmp	r4, #4
 219 002e F3D1     		bne	.L18
 220 0030 0135     		adds	r5, r5, #1
 221              	.LVL31:
 222 0032 6DB2     		sxtb	r5, r5
 223              	.LVL32:
 224              	.LBE3:
 225              		.loc 1 42 0
 226 0034 B542     		cmp	r5, r6
 227 0036 EEDD     		ble	.L19
 228              	.LVL33:
ARM GAS  C:\Users\Valentin\AppData\Local\Temp\cciQCDHf.s 			page 5


 229              	.L16:
 230              		.loc 1 50 0
 231 0038 019A     		ldr	r2, [sp, #4]
 232 003a 3B68     		ldr	r3, [r7]
 233 003c 9A42     		cmp	r2, r3
 234 003e 01D1     		bne	.L24
 235 0040 03B0     		add	sp, sp, #12
 236              		.cfi_remember_state
 237              		.cfi_def_cfa_offset 20
 238              		@ sp needed
 239 0042 F0BD     		pop	{r4, r5, r6, r7, pc}
 240              	.LVL34:
 241              	.L24:
 242              		.cfi_restore_state
 243 0044 FFF7FEFF 		bl	__stack_chk_fail
 244              	.LVL35:
 245              	.L26:
 246              		.align	2
 247              	.L25:
 248 0048 00000000 		.word	__stack_chk_guard
 249              		.cfi_endproc
 250              	.LFE260:
 251              		.size	leds_think, .-leds_think
 252              		.section	.text.leds_stop,"ax",%progbits
 253              		.align	1
 254              		.p2align 4,,15
 255              		.global	leds_stop
 256              		.syntax unified
 257              		.thumb
 258              		.thumb_func
 259              		.fpu fpv4-sp-d16
 260              		.type	leds_stop, %function
 261              	leds_stop:
 262              	.LFB261:
 263              		.loc 1 53 0
 264              		.cfi_startproc
 265              		@ args = 0, pretend = 0, frame = 8
 266              		@ frame_needed = 0, uses_anonymous_args = 0
 267              	.LVL36:
 268 0000 30B5     		push	{r4, r5, lr}
 269              		.cfi_def_cfa_offset 12
 270              		.cfi_offset 4, -12
 271              		.cfi_offset 5, -8
 272              		.cfi_offset 14, -4
 273 0002 144C     		ldr	r4, .L32
 274 0004 83B0     		sub	sp, sp, #12
 275              		.cfi_def_cfa_offset 24
 276              		.loc 1 53 0
 277 0006 2368     		ldr	r3, [r4]
 278 0008 0193     		str	r3, [sp, #4]
 279 000a 0546     		mov	r5, r0
 280              		.loc 1 54 0
 281 000c FFF7FEFF 		bl	clear_leds
 282              	.LVL37:
 283              	.LBB4:
 284              		.loc 1 56 0
 285 0010 0121     		movs	r1, #1
ARM GAS  C:\Users\Valentin\AppData\Local\Temp\cciQCDHf.s 			page 6


 286 0012 0846     		mov	r0, r1
 287 0014 FFF7FEFF 		bl	set_led
 288              	.LVL38:
 289 0018 0121     		movs	r1, #1
 290 001a 0220     		movs	r0, #2
 291 001c FFF7FEFF 		bl	set_led
 292              	.LVL39:
 293 0020 0121     		movs	r1, #1
 294 0022 0320     		movs	r0, #3
 295 0024 FFF7FEFF 		bl	set_led
 296              	.LVL40:
 297              	.LBE4:
 298              		.loc 1 58 0
 299 0028 019A     		ldr	r2, [sp, #4]
 300 002a 2368     		ldr	r3, [r4]
 301 002c 9A42     		cmp	r2, r3
 302 002e 0ED1     		bne	.L31
 303 0030 4FF47A70 		mov	r0, #1000
 304 0034 00FB05F0 		mul	r0, r0, r5
 305 0038 074B     		ldr	r3, .L32+4
 306 003a 00F2E730 		addw	r0, r0, #999
 307 003e A3FB0030 		umull	r3, r0, r3, r0
 308 0042 8009     		lsrs	r0, r0, #6
 309              		.loc 1 59 0
 310 0044 03B0     		add	sp, sp, #12
 311              		.cfi_remember_state
 312              		.cfi_def_cfa_offset 12
 313              		@ sp needed
 314 0046 BDE83040 		pop	{r4, r5, lr}
 315              		.cfi_restore 14
 316              		.cfi_restore 5
 317              		.cfi_restore 4
 318              		.cfi_def_cfa_offset 0
 319              	.LVL41:
 320              		.loc 1 58 0
 321 004a FFF7FEBF 		b	chThdSleep
 322              	.LVL42:
 323              	.L31:
 324              		.cfi_restore_state
 325 004e FFF7FEFF 		bl	__stack_chk_fail
 326              	.LVL43:
 327              	.L33:
 328 0052 00BF     		.align	2
 329              	.L32:
 330 0054 00000000 		.word	__stack_chk_guard
 331 0058 D34D6210 		.word	274877907
 332              		.cfi_endproc
 333              	.LFE261:
 334              		.size	leds_stop, .-leds_stop
 335              		.text
 336              	.Letext0:
 337              		.file 2 "c:\\users\\valentin\\desktop\\eclipse_e-puck2\\tools\\gcc-arm-none-eabi-7-2017-q4-major-w
 338              		.file 3 "c:\\users\\valentin\\desktop\\eclipse_e-puck2\\tools\\gcc-arm-none-eabi-7-2017-q4-major-w
 339              		.file 4 "c:\\users\\valentin\\desktop\\eclipse_e-puck2\\tools\\gcc-arm-none-eabi-7-2017-q4-major-w
 340              		.file 5 "c:\\users\\valentin\\desktop\\eclipse_e-puck2\\tools\\gcc-arm-none-eabi-7-2017-q4-major-w
 341              		.file 6 "c:\\users\\valentin\\desktop\\eclipse_e-puck2\\tools\\gcc-arm-none-eabi-7-2017-q4-major-w
 342              		.file 7 "c:\\users\\valentin\\desktop\\eclipse_e-puck2\\tools\\gcc-arm-none-eabi-7-2017-q4-major-w
ARM GAS  C:\Users\Valentin\AppData\Local\Temp\cciQCDHf.s 			page 7


 343              		.file 8 "c:\\users\\valentin\\desktop\\eclipse_e-puck2\\tools\\gcc-arm-none-eabi-7-2017-q4-major-w
 344              		.file 9 "c:\\users\\valentin\\desktop\\eclipse_e-puck2\\tools\\gcc-arm-none-eabi-7-2017-q4-major-w
 345              		.file 10 "../e-puck2_main-processor/ChibiOS//os/rt/ports/ARMCMx/compilers/GCC/chtypes.h"
 346              		.file 11 "../e-puck2_main-processor/ChibiOS//os/rt/include/chsystypes.h"
 347              		.file 12 "../e-puck2_main-processor/ChibiOS//os/rt/include/chschd.h"
 348              		.file 13 "../e-puck2_main-processor/ChibiOS//os/ext/CMSIS/include/core_cm4.h"
 349              		.file 14 "../e-puck2_main-processor/ChibiOS//os/ext/CMSIS/ST/system_stm32f4xx.h"
 350              		.file 15 "../e-puck2_main-processor/ChibiOS//os/ext/CMSIS/ST/stm32f407xx.h"
 351              		.file 16 "../e-puck2_main-processor/ChibiOS//os/rt/ports/ARMCMx/chcore.h"
 352              		.file 17 "../e-puck2_main-processor/ChibiOS//os/rt/ports/ARMCMx/chcore_v7m.h"
 353              		.file 18 "../e-puck2_main-processor/ChibiOS//os/rt/include/chdebug.h"
 354              		.file 19 "../e-puck2_main-processor/ChibiOS//os/rt/include/chtm.h"
 355              		.file 20 "../e-puck2_main-processor/ChibiOS//os/rt/include/chstats.h"
 356              		.file 21 "../e-puck2_main-processor/ChibiOS//os/rt/include/chsem.h"
 357              		.file 22 "../e-puck2_main-processor/ChibiOS//os/rt/include/chmtx.h"
 358              		.file 23 "../e-puck2_main-processor/ChibiOS//os/rt/include/chregistry.h"
 359              		.file 24 "../e-puck2_main-processor/ChibiOS//os/rt/include/chevents.h"
 360              		.file 25 "../e-puck2_main-processor/ChibiOS//os/rt/include/chqueues.h"
 361              		.file 26 "../e-puck2_main-processor/ChibiOS//os/hal/ports/STM32/STM32F4xx/stm32_dma.h"
 362              		.file 27 "../e-puck2_main-processor/ChibiOS//os/hal/include/hal_ioblock.h"
 363              		.file 28 "../e-puck2_main-processor/ChibiOS//os/hal/ports/STM32/LLD/GPIOv2/pal_lld.h"
 364              		.file 29 "../e-puck2_main-processor/ChibiOS//os/hal/include/adc.h"
 365              		.file 30 "../e-puck2_main-processor/ChibiOS//os/hal/ports/STM32/STM32F4xx/adc_lld.h"
 366              		.file 31 "../e-puck2_main-processor/ChibiOS//os/hal/include/can.h"
 367              		.file 32 "../e-puck2_main-processor/ChibiOS//os/hal/ports/STM32/LLD/can_lld.h"
 368              		.file 33 "../e-puck2_main-processor/ChibiOS//os/hal/include/dac.h"
 369              		.file 34 "../e-puck2_main-processor/ChibiOS//os/hal/ports/STM32/LLD/DACv1/dac_lld.h"
 370              		.file 35 "../e-puck2_main-processor/ChibiOS//os/hal/include/ext.h"
 371              		.file 36 "../e-puck2_main-processor/ChibiOS//os/hal/ports/STM32/LLD/ext_lld.h"
 372              		.file 37 "../e-puck2_main-processor/ChibiOS//os/hal/include/gpt.h"
 373              		.file 38 "../e-puck2_main-processor/ChibiOS//os/hal/ports/STM32/LLD/TIMv1/gpt_lld.h"
 374              		.file 39 "../e-puck2_main-processor/ChibiOS//os/hal/ports/STM32/LLD/TIMv1/stm32_tim.h"
 375              		.file 40 "../e-puck2_main-processor/ChibiOS//os/hal/include/i2c.h"
 376              		.file 41 "../e-puck2_main-processor/ChibiOS//os/hal/ports/STM32/LLD/I2Cv1/i2c_lld.h"
 377              		.file 42 "../e-puck2_main-processor/ChibiOS//os/hal/include/i2s.h"
 378              		.file 43 "../e-puck2_main-processor/ChibiOS//os/hal/ports/STM32/LLD/SPIv1/i2s_lld.h"
 379              		.file 44 "../e-puck2_main-processor/ChibiOS//os/hal/include/pwm.h"
 380              		.file 45 "../e-puck2_main-processor/ChibiOS//os/hal/ports/STM32/LLD/TIMv1/pwm_lld.h"
 381              		.file 46 "../e-puck2_main-processor/ChibiOS//os/hal/include/serial.h"
 382              		.file 47 "../e-puck2_main-processor/ChibiOS//os/hal/ports/STM32/LLD/USARTv1/serial_lld.h"
 383              		.file 48 "../e-puck2_main-processor/ChibiOS//os/hal/include/sdc.h"
 384              		.file 49 "../e-puck2_main-processor/ChibiOS//os/hal/ports/STM32/LLD/sdc_lld.h"
 385              		.file 50 "../e-puck2_main-processor/ChibiOS//os/hal/include/spi.h"
 386              		.file 51 "../e-puck2_main-processor/ChibiOS//os/hal/ports/STM32/LLD/SPIv1/spi_lld.h"
 387              		.file 52 "../e-puck2_main-processor/ChibiOS//os/hal/include/usb.h"
 388              		.file 53 "../e-puck2_main-processor/ChibiOS//os/hal/ports/STM32/LLD/OTGv1/usb_lld.h"
 389              		.file 54 "../e-puck2_main-processor/ChibiOS//os/hal/ports/STM32/LLD/OTGv1/stm32_otg.h"
 390              		.file 55 "../e-puck2_main-processor/src/leds.h"
 391              		.file 56 "../e-puck2_main-processor/ChibiOS//os/rt/include/chthreads.h"