ARM GAS  C:\Users\Valentin\AppData\Local\Temp\ccLR5tys.s 			page 1


   1              		.cpu cortex-m4
   2              		.eabi_attribute 27, 1
   3              		.eabi_attribute 28, 1
   4              		.eabi_attribute 20, 1
   5              		.eabi_attribute 21, 1
   6              		.eabi_attribute 23, 3
   7              		.eabi_attribute 24, 1
   8              		.eabi_attribute 25, 1
   9              		.eabi_attribute 26, 1
  10              		.eabi_attribute 30, 2
  11              		.eabi_attribute 34, 1
  12              		.eabi_attribute 18, 4
  13              		.file	"allThreads.c"
  14              		.text
  15              	.Ltext0:
  16              		.cfi_sections	.debug_frame
  17              		.section	.text.Thd_main_function,"ax",%progbits
  18              		.align	1
  19              		.p2align 4,,15
  20              		.syntax unified
  21              		.thumb
  22              		.thumb_func
  23              		.fpu fpv4-sp-d16
  24              		.type	Thd_main_function, %function
  25              	Thd_main_function:
  26              	.LFB260:
  27              		.file 1 "allThreads.c"
  28              		.loc 1 34 0
  29              		.cfi_startproc
  30              		@ args = 0, pretend = 0, frame = 8
  31              		@ frame_needed = 0, uses_anonymous_args = 0
  32              	.LVL0:
  33 0000 00B5     		push	{lr}
  34              		.cfi_def_cfa_offset 4
  35              		.cfi_offset 14, -4
  36              	.LBB5:
  37              	.LBB6:
  38              		.file 2 "c:\\users\\valentin\\desktop\\microinformatique-tp\\autres\\e-puck2_main-processor\\chibi
  39              		.loc 2 135 0
  40 0002 1D4A     		ldr	r2, .L26
  41              	.LBE6:
  42              	.LBE5:
  43              		.loc 1 34 0
  44 0004 1D4B     		ldr	r3, .L26+4
  45              	.LBB9:
  46              	.LBB7:
  47              		.loc 2 135 0
  48 0006 9269     		ldr	r2, [r2, #24]
  49 0008 1D49     		ldr	r1, .L26+8
  50              	.LBE7:
  51              	.LBE9:
  52              		.loc 1 34 0
  53 000a 1B68     		ldr	r3, [r3]
  54              	.LBB10:
  55              	.LBB8:
  56              		.loc 2 135 0
  57 000c 9161     		str	r1, [r2, #24]
ARM GAS  C:\Users\Valentin\AppData\Local\Temp\ccLR5tys.s 			page 2


  58              	.LBE8:
  59              	.LBE10:
  60              		.loc 1 34 0
  61 000e 83B0     		sub	sp, sp, #12
  62              		.cfi_def_cfa_offset 16
  63              		.loc 1 34 0
  64 0010 0193     		str	r3, [sp, #4]
  65              	.LVL1:
  66              	.L12:
  67              	.LBB11:
  68              		.loc 1 42 0
  69 0012 FFF7FEFF 		bl	get_selector
  70              	.LVL2:
  71 0016 0028     		cmp	r0, #0
  72 0018 B8BF     		it	lt
  73 001a 0330     		addlt	r0, r0, #3
  74 001c 8010     		asrs	r0, r0, #2
  75              		.loc 1 43 0
  76 001e 0328     		cmp	r0, #3
  77 0020 20D8     		bhi	.L2
  78 0022 DFE800F0 		tbb	[pc, r0]
  79              	.L4:
  80 0026 0F       		.byte	(.L3-.L4)/2
  81 0027 18       		.byte	(.L6-.L4)/2
  82 0028 08       		.byte	(.L7-.L4)/2
  83 0029 02       		.byte	(.L8-.L4)/2
  84              		.p2align 1
  85              	.L8:
  86              		.loc 1 61 0
  87 002a FFF7FEFF 		bl	button_get_state
  88              	.LVL3:
  89 002e E8B9     		cbnz	r0, .L25
  90              	.L10:
  91              		.loc 1 70 0
  92 0030 FFF7FEFF 		bl	stopMotors
  93              	.LVL4:
  94              	.LBE11:
  95              		.loc 1 40 0
  96 0034 EDE7     		b	.L12
  97              	.L7:
  98              	.LBB12:
  99              		.loc 1 56 0
 100 0036 FFF7FEFF 		bl	button_get_state
 101              	.LVL5:
 102 003a 0028     		cmp	r0, #0
 103 003c F8D0     		beq	.L10
 104              		.loc 1 57 0
 105 003e FFF7FEFF 		bl	print_tab
 106              	.LVL6:
 107 0042 F5E7     		b	.L10
 108              	.L3:
 109              		.loc 1 45 0
 110 0044 FFF7FEFF 		bl	button_get_state
 111              	.LVL7:
 112 0048 0028     		cmp	r0, #0
 113 004a F1D0     		beq	.L10
 114              		.loc 1 46 0
ARM GAS  C:\Users\Valentin\AppData\Local\Temp\ccLR5tys.s 			page 3


 115 004c FFF7FEFF 		bl	clean_tab
 116              	.LVL8:
 117              		.loc 1 47 0
 118 0050 FFF7FEFF 		bl	explore_maze
 119              	.LVL9:
 120 0054 ECE7     		b	.L10
 121              	.L6:
 122              		.loc 1 51 0
 123 0056 FFF7FEFF 		bl	button_get_state
 124              	.LVL10:
 125 005a 0028     		cmp	r0, #0
 126 005c E8D0     		beq	.L10
 127              		.loc 1 52 0
 128 005e FFF7FEFF 		bl	EP_call_home
 129              	.LVL11:
 130 0062 E5E7     		b	.L10
 131              	.L2:
 132              		.loc 1 67 0
 133 0064 C820     		movs	r0, #200
 134 0066 FFF7FEFF 		bl	up_leds_blink
 135              	.LVL12:
 136              		.loc 1 68 0
 137 006a E1E7     		b	.L10
 138              	.L25:
 139              		.loc 1 62 0
 140 006c FFF7FEFF 		bl	ckeck_robot
 141              	.LVL13:
 142              		.loc 1 63 0
 143 0070 6420     		movs	r0, #100
 144 0072 FFF7FEFF 		bl	chThdSleep
 145              	.LVL14:
 146 0076 DBE7     		b	.L10
 147              	.L27:
 148              		.align	2
 149              	.L26:
 150 0078 00000000 		.word	ch
 151 007c 00000000 		.word	__stack_chk_guard
 152 0080 00000000 		.word	.LANCHOR0
 153              	.LBE12:
 154              		.cfi_endproc
 155              	.LFE260:
 156              		.size	Thd_main_function, .-Thd_main_function
 157              		.section	.text.main_thread_start,"ax",%progbits
 158              		.align	1
 159              		.p2align 4,,15
 160              		.global	main_thread_start
 161              		.syntax unified
 162              		.thumb
 163              		.thumb_func
 164              		.fpu fpv4-sp-d16
 165              		.type	main_thread_start, %function
 166              	main_thread_start:
 167              	.LFB261:
 168              		.loc 1 76 0
 169              		.cfi_startproc
 170              		@ args = 0, pretend = 0, frame = 8
 171              		@ frame_needed = 0, uses_anonymous_args = 0
ARM GAS  C:\Users\Valentin\AppData\Local\Temp\ccLR5tys.s 			page 4


 172 0000 10B5     		push	{r4, lr}
 173              		.cfi_def_cfa_offset 8
 174              		.cfi_offset 4, -8
 175              		.cfi_offset 14, -4
 176 0002 0A4C     		ldr	r4, .L32
 177              		.loc 1 77 0
 178 0004 0A4B     		ldr	r3, .L32+4
 179              		.loc 1 76 0
 180 0006 2268     		ldr	r2, [r4]
 181              		.loc 1 77 0
 182 0008 0A48     		ldr	r0, .L32+8
 183              		.loc 1 76 0
 184 000a 84B0     		sub	sp, sp, #16
 185              		.cfi_def_cfa_offset 24
 186              		.loc 1 77 0
 187 000c 40F67811 		movw	r1, #2424
 188              		.loc 1 76 0
 189 0010 0392     		str	r2, [sp, #12]
 190              		.loc 1 77 0
 191 0012 0022     		movs	r2, #0
 192 0014 0092     		str	r2, [sp]
 193 0016 4022     		movs	r2, #64
 194 0018 FFF7FEFF 		bl	chThdCreateStatic
 195              	.LVL15:
 196              		.loc 1 78 0
 197 001c 039A     		ldr	r2, [sp, #12]
 198 001e 2368     		ldr	r3, [r4]
 199 0020 9A42     		cmp	r2, r3
 200 0022 01D1     		bne	.L31
 201 0024 04B0     		add	sp, sp, #16
 202              		.cfi_remember_state
 203              		.cfi_def_cfa_offset 8
 204              		@ sp needed
 205 0026 10BD     		pop	{r4, pc}
 206              	.L31:
 207              		.cfi_restore_state
 208 0028 FFF7FEFF 		bl	__stack_chk_fail
 209              	.LVL16:
 210              	.L33:
 211              		.align	2
 212              	.L32:
 213 002c 00000000 		.word	__stack_chk_guard
 214 0030 00000000 		.word	Thd_main_function
 215 0034 00000000 		.word	.LANCHOR1
 216              		.cfi_endproc
 217              	.LFE261:
 218              		.size	main_thread_start, .-main_thread_start
 219              		.section	.bss.waThd_main_function,"aw",%nobits
 220              		.align	3
 221              		.set	.LANCHOR1,. + 0
 222              		.type	waThd_main_function, %object
 223              		.size	waThd_main_function, 2424
 224              	waThd_main_function:
 225 0000 00000000 		.space	2424
 225      00000000 
 225      00000000 
 225      00000000 
ARM GAS  C:\Users\Valentin\AppData\Local\Temp\ccLR5tys.s 			page 5


 225      00000000 
 226              		.section	.rodata.__FUNCTION__.13255,"a",%progbits
 227              		.align	2
 228              		.set	.LANCHOR0,. + 0
 229              		.type	__FUNCTION__.13255, %object
 230              		.size	__FUNCTION__.13255, 18
 231              	__FUNCTION__.13255:
 232 0000 5468645F 		.ascii	"Thd_main_function\000"
 232      6D61696E 
 232      5F66756E 
 232      6374696F 
 232      6E00
 233              		.text
 234              	.Letext0:
 235              		.file 3 "c:\\users\\valentin\\desktop\\eclipse_e-puck2\\tools\\gcc-arm-none-eabi-7-2017-q4-major-w
 236              		.file 4 "c:\\users\\valentin\\desktop\\eclipse_e-puck2\\tools\\gcc-arm-none-eabi-7-2017-q4-major-w
 237              		.file 5 "c:\\users\\valentin\\desktop\\eclipse_e-puck2\\tools\\gcc-arm-none-eabi-7-2017-q4-major-w
 238              		.file 6 "c:\\users\\valentin\\desktop\\eclipse_e-puck2\\tools\\gcc-arm-none-eabi-7-2017-q4-major-w
 239              		.file 7 "c:\\users\\valentin\\desktop\\eclipse_e-puck2\\tools\\gcc-arm-none-eabi-7-2017-q4-major-w
 240              		.file 8 "c:\\users\\valentin\\desktop\\eclipse_e-puck2\\tools\\gcc-arm-none-eabi-7-2017-q4-major-w
 241              		.file 9 "c:\\users\\valentin\\desktop\\eclipse_e-puck2\\tools\\gcc-arm-none-eabi-7-2017-q4-major-w
 242              		.file 10 "c:\\users\\valentin\\desktop\\eclipse_e-puck2\\tools\\gcc-arm-none-eabi-7-2017-q4-major-
 243              		.file 11 "c:\\users\\valentin\\desktop\\microinformatique-tp\\autres\\e-puck2_main-processor\\chib
 244              		.file 12 "c:\\users\\valentin\\desktop\\microinformatique-tp\\autres\\e-puck2_main-processor\\chib
 245              		.file 13 "c:\\users\\valentin\\desktop\\microinformatique-tp\\autres\\e-puck2_main-processor\\chib
 246              		.file 14 "c:\\users\\valentin\\desktop\\microinformatique-tp\\autres\\e-puck2_main-processor\\chib
 247              		.file 15 "c:\\users\\valentin\\desktop\\microinformatique-tp\\autres\\e-puck2_main-processor\\chib
 248              		.file 16 "c:\\users\\valentin\\desktop\\microinformatique-tp\\autres\\e-puck2_main-processor\\chib
 249              		.file 17 "c:\\users\\valentin\\desktop\\microinformatique-tp\\autres\\e-puck2_main-processor\\chib
 250              		.file 18 "c:\\users\\valentin\\desktop\\microinformatique-tp\\autres\\e-puck2_main-processor\\chib
 251              		.file 19 "c:\\users\\valentin\\desktop\\microinformatique-tp\\autres\\e-puck2_main-processor\\chib
 252              		.file 20 "c:\\users\\valentin\\desktop\\microinformatique-tp\\autres\\e-puck2_main-processor\\chib
 253              		.file 21 "c:\\users\\valentin\\desktop\\microinformatique-tp\\autres\\e-puck2_main-processor\\chib
 254              		.file 22 "c:\\users\\valentin\\desktop\\microinformatique-tp\\autres\\e-puck2_main-processor\\chib
 255              		.file 23 "c:\\users\\valentin\\desktop\\microinformatique-tp\\autres\\e-puck2_main-processor\\chib
 256              		.file 24 "c:\\users\\valentin\\desktop\\microinformatique-tp\\autres\\e-puck2_main-processor\\chib
 257              		.file 25 "c:\\users\\valentin\\desktop\\microinformatique-tp\\autres\\e-puck2_main-processor\\chib
 258              		.file 26 "c:\\users\\valentin\\desktop\\microinformatique-tp\\autres\\e-puck2_main-processor\\chib
 259              		.file 27 "c:\\users\\valentin\\desktop\\microinformatique-tp\\autres\\e-puck2_main-processor\\chib
 260              		.file 28 "c:\\users\\valentin\\desktop\\microinformatique-tp\\autres\\e-puck2_main-processor\\chib
 261              		.file 29 "c:\\users\\valentin\\desktop\\microinformatique-tp\\autres\\e-puck2_main-processor\\chib
 262              		.file 30 "c:\\users\\valentin\\desktop\\microinformatique-tp\\autres\\e-puck2_main-processor\\chib
 263              		.file 31 "c:\\users\\valentin\\desktop\\microinformatique-tp\\autres\\e-puck2_main-processor\\chib
 264              		.file 32 "c:\\users\\valentin\\desktop\\microinformatique-tp\\autres\\e-puck2_main-processor\\chib
 265              		.file 33 "c:\\users\\valentin\\desktop\\microinformatique-tp\\autres\\e-puck2_main-processor\\chib
 266              		.file 34 "c:\\users\\valentin\\desktop\\microinformatique-tp\\autres\\e-puck2_main-processor\\chib
 267              		.file 35 "c:\\users\\valentin\\desktop\\microinformatique-tp\\autres\\e-puck2_main-processor\\chib
 268              		.file 36 "c:\\users\\valentin\\desktop\\microinformatique-tp\\autres\\e-puck2_main-processor\\chib
 269              		.file 37 "c:\\users\\valentin\\desktop\\microinformatique-tp\\autres\\e-puck2_main-processor\\chib
 270              		.file 38 "c:\\users\\valentin\\desktop\\microinformatique-tp\\autres\\e-puck2_main-processor\\chib
 271              		.file 39 "c:\\users\\valentin\\desktop\\microinformatique-tp\\autres\\e-puck2_main-processor\\chib
 272              		.file 40 "c:\\users\\valentin\\desktop\\microinformatique-tp\\autres\\e-puck2_main-processor\\chib
 273              		.file 41 "c:\\users\\valentin\\desktop\\microinformatique-tp\\autres\\e-puck2_main-processor\\chib
 274              		.file 42 "c:\\users\\valentin\\desktop\\microinformatique-tp\\autres\\e-puck2_main-processor\\chib
 275              		.file 43 "c:\\users\\valentin\\desktop\\microinformatique-tp\\autres\\e-puck2_main-processor\\chib
 276              		.file 44 "c:\\users\\valentin\\desktop\\microinformatique-tp\\autres\\e-puck2_main-processor\\chib
 277              		.file 45 "c:\\users\\valentin\\desktop\\microinformatique-tp\\autres\\e-puck2_main-processor\\chib
ARM GAS  C:\Users\Valentin\AppData\Local\Temp\ccLR5tys.s 			page 6


 278              		.file 46 "c:\\users\\valentin\\desktop\\microinformatique-tp\\autres\\e-puck2_main-processor\\chib
 279              		.file 47 "c:\\users\\valentin\\desktop\\microinformatique-tp\\autres\\e-puck2_main-processor\\chib
 280              		.file 48 "c:\\users\\valentin\\desktop\\microinformatique-tp\\autres\\e-puck2_main-processor\\chib
 281              		.file 49 "c:\\users\\valentin\\desktop\\microinformatique-tp\\autres\\e-puck2_main-processor\\chib
 282              		.file 50 "c:\\users\\valentin\\desktop\\microinformatique-tp\\autres\\e-puck2_main-processor\\chib
 283              		.file 51 "c:\\users\\valentin\\desktop\\microinformatique-tp\\autres\\e-puck2_main-processor\\chib
 284              		.file 52 "c:\\users\\valentin\\desktop\\microinformatique-tp\\autres\\e-puck2_main-processor\\chib
 285              		.file 53 "c:\\users\\valentin\\desktop\\microinformatique-tp\\autres\\e-puck2_main-processor\\chib
 286              		.file 54 "c:\\users\\valentin\\desktop\\microinformatique-tp\\autres\\e-puck2_main-processor\\chib
 287              		.file 55 "c:\\users\\valentin\\desktop\\eclipse_e-puck2\\tools\\gcc-arm-none-eabi-7-2017-q4-major-
 288              		.file 56 "./color.h"
 289              		.file 57 "c:\\users\\valentin\\desktop\\microinformatique-tp\\autres\\e-puck2_main-processor\\chib
 290              		.file 58 "C:\\Users\\Valentin\\Desktop\\Microinformatique-TP\\autres\\e-puck2_main-processor/src/s
 291              		.file 59 "C:\\Users\\Valentin\\Desktop\\Microinformatique-TP\\autres\\e-puck2_main-processor/src/b
 292              		.file 60 "./usageMotors.h"
 293              		.file 61 "./actionUser.h"