ARM GAS  C:\Users\Valentin\AppData\Local\Temp\ccExQOPB.s 			page 1


   1              		.cpu cortex-m4
   2              		.eabi_attribute 27, 1
   3              		.eabi_attribute 28, 1
   4              		.eabi_attribute 20, 1
   5              		.eabi_attribute 21, 1
   6              		.eabi_attribute 23, 3
   7              		.eabi_attribute 24, 1
   8              		.eabi_attribute 25, 1
   9              		.eabi_attribute 26, 1
  10              		.eabi_attribute 30, 2
  11              		.eabi_attribute 34, 1
  12              		.eabi_attribute 18, 4
  13              		.file	"behaviors.c"
  14              		.text
  15              	.Ltext0:
  16              		.cfi_sections	.debug_frame
  17              		.section	.text.behaviors_thd,"ax",%progbits
  18              		.align	1
  19              		.p2align 4,,15
  20              		.syntax unified
  21              		.thumb
  22              		.thumb_func
  23              		.fpu fpv4-sp-d16
  24              		.type	behaviors_thd, %function
  25              	behaviors_thd:
  26              	.LFB258:
  27              		.file 1 "../e-puck2_main-processor/src/behaviors.c"
  28              		.loc 1 22 0
  29              		.cfi_startproc
  30              		@ args = 0, pretend = 0, frame = 24
  31              		@ frame_needed = 0, uses_anonymous_args = 0
  32              	.LVL0:
  33 0000 2DE9F04F 		push	{r4, r5, r6, r7, r8, r9, r10, fp, lr}
  34              		.cfi_def_cfa_offset 36
  35              		.cfi_offset 4, -36
  36              		.cfi_offset 5, -32
  37              		.cfi_offset 6, -28
  38              		.cfi_offset 7, -24
  39              		.cfi_offset 8, -20
  40              		.cfi_offset 9, -16
  41              		.cfi_offset 10, -12
  42              		.cfi_offset 11, -8
  43              		.cfi_offset 14, -4
  44              	.LBB58:
  45              	.LBB59:
  46              		.file 2 "../e-puck2_main-processor/ChibiOS//os/rt/include/chregistry.h"
  47              		.loc 2 135 0
  48 0004 3C4C     		ldr	r4, .L18
  49 0006 3D4A     		ldr	r2, .L18+4
  50 0008 A369     		ldr	r3, [r4, #24]
  51 000a 9A61     		str	r2, [r3, #24]
  52              	.LBE59:
  53              	.LBE58:
  54              	.LBB60:
  55              	.LBB61:
  56              		.file 3 "../e-puck2_main-processor/ChibiOS//os/rt/include/chthreads.h"
  57              		.loc 3 233 0
ARM GAS  C:\Users\Valentin\AppData\Local\Temp\ccExQOPB.s 			page 2


  58 000c A269     		ldr	r2, [r4, #24]
  59              	.LBE61:
  60              	.LBE60:
  61              		.loc 1 22 0
  62 000e 3C4B     		ldr	r3, .L18+8
  63              		.loc 1 31 0
  64 0010 92F82170 		ldrb	r7, [r2, #33]	@ zero_extendqisi2
  65              		.loc 1 22 0
  66 0014 1B68     		ldr	r3, [r3]
  67 0016 87B0     		sub	sp, sp, #28
  68              		.cfi_def_cfa_offset 64
  69              		.loc 1 31 0
  70 0018 17F00407 		ands	r7, r7, #4
  71              		.loc 1 22 0
  72 001c 0593     		str	r3, [sp, #20]
  73              	.LVL1:
  74              		.loc 1 31 0
  75 001e 60D1     		bne	.L1
  76 0020 DFF8E890 		ldr	r9, .L18+20
  77              		.loc 1 27 0
  78 0024 3E46     		mov	r6, r7
  79              	.LBB63:
  80              	.LBB64:
  81              	.LBB65:
  82              	.LBB66:
  83              	.LBB67:
  84              	.LBB68:
  85              	.LBB69:
  86              		.file 4 "../e-puck2_main-processor/ChibiOS//os/ext/CMSIS/include/core_cmFunc.h"
  87              		.loc 4 546 0
  88 0026 4FF02008 		mov	r8, #32
  89 002a 09E0     		b	.L7
  90              	.LVL2:
  91              	.L4:
  92              	.LBE69:
  93              	.LBE68:
  94              	.LBE67:
  95              	.LBE66:
  96              	.LBE65:
  97              	.LBE64:
  98              	.LBE63:
  99              		.loc 1 47 0
 100 002c 05F10A01 		add	r1, r5, #10
 101 0030 2846     		mov	r0, r5
 102 0032 FFF7FEFF 		bl	chThdSleepUntilWindowed
 103              	.LVL3:
 104              	.LBB83:
 105              	.LBB62:
 106              		.loc 3 233 0
 107 0036 A369     		ldr	r3, [r4, #24]
 108              	.LBE62:
 109              	.LBE83:
 110              		.loc 1 31 0
 111 0038 93F82130 		ldrb	r3, [r3, #33]	@ zero_extendqisi2
 112 003c 5B07     		lsls	r3, r3, #29
 113 003e 50D4     		bmi	.L1
 114              	.LVL4:
ARM GAS  C:\Users\Valentin\AppData\Local\Temp\ccExQOPB.s 			page 3


 115              	.L7:
 116              	.LBB84:
 117              	.LBB82:
 118              	.LBB74:
 119              	.LBB73:
 120              	.LBB72:
 121              	.LBB71:
 122              	.LBB70:
 123              		.loc 4 546 0
 124              		.syntax unified
 125              	@ 546 "../e-puck2_main-processor/ChibiOS//os/ext/CMSIS/include/core_cmFunc.h" 1
 126 0040 88F31188 		MSR basepri, r8
 127              	@ 0 "" 2
 128              	.LVL5:
 129              		.thumb
 130              		.syntax unified
 131              	.LBE70:
 132              	.LBE71:
 133              	.LBE72:
 134              		.file 5 "../e-puck2_main-processor/ChibiOS//os/rt/include/chsys.h"
 135              		.loc 5 349 0
 136 0044 FFF7FEFF 		bl	_stats_start_measure_crit_thd
 137              	.LVL6:
 138              		.loc 5 350 0
 139 0048 FFF7FEFF 		bl	_dbg_check_lock
 140              	.LVL7:
 141              	.LBE73:
 142              	.LBE74:
 143              	.LBB75:
 144              	.LBB76:
 145              		.file 6 "../e-puck2_main-processor/ChibiOS//os/rt/include/chvt.h"
 146              		.loc 6 231 0
 147 004c A56A     		ldr	r5, [r4, #40]
 148              	.LBE76:
 149              	.LBE75:
 150              	.LBB77:
 151              	.LBB78:
 152              		.loc 5 360 0
 153 004e FFF7FEFF 		bl	_dbg_check_unlock
 154              	.LVL8:
 155              		.loc 5 361 0
 156 0052 FFF7FEFF 		bl	_stats_stop_measure_crit_thd
 157              	.LVL9:
 158              		.loc 5 367 0
 159 0056 2368     		ldr	r3, [r4]
 160 0058 A342     		cmp	r3, r4
 161 005a 07D0     		beq	.L3
 162 005c A269     		ldr	r2, [r4, #24]
 163 005e 9B68     		ldr	r3, [r3, #8]
 164 0060 9268     		ldr	r2, [r2, #8]
 165 0062 9A42     		cmp	r2, r3
 166 0064 02D2     		bcs	.L3
 167 0066 2748     		ldr	r0, .L18+12
 168 0068 FFF7FEFF 		bl	chSysHalt
 169              	.LVL10:
 170              	.L3:
 171              	.LBB79:
ARM GAS  C:\Users\Valentin\AppData\Local\Temp\ccExQOPB.s 			page 4


 172              	.LBB80:
 173              	.LBB81:
 174              		.loc 4 546 0
 175 006c 0023     		movs	r3, #0
 176              		.syntax unified
 177              	@ 546 "../e-puck2_main-processor/ChibiOS//os/ext/CMSIS/include/core_cmFunc.h" 1
 178 006e 83F31188 		MSR basepri, r3
 179              	@ 0 "" 2
 180              	.LVL11:
 181              		.thumb
 182              		.syntax unified
 183              	.LBE81:
 184              	.LBE80:
 185              	.LBE79:
 186              	.LBE78:
 187              	.LBE77:
 188              	.LBE82:
 189              	.LBE84:
 190              		.loc 1 33 0
 191 0072 99F80020 		ldrb	r2, [r9]	@ zero_extendqisi2
 192 0076 002A     		cmp	r2, #0
 193 0078 D8D0     		beq	.L4
 194 007a 9A46     		mov	r10, r3
 195 007c 0DF1020B 		add	fp, sp, #2
 196              	.L5:
 197              	.LVL12:
 198              		.loc 1 36 0 discriminator 3
 199 0080 5046     		mov	r0, r10
 200 0082 FFF7FEFF 		bl	get_calibrated_prox
 201              	.LVL13:
 202 0086 0AF1010A 		add	r10, r10, #1
 203              	.LVL14:
 204              		.loc 1 35 0 discriminator 3
 205 008a BAF1080F 		cmp	r10, #8
 206              		.loc 1 36 0 discriminator 3
 207 008e 2BF8020F 		strh	r0, [fp, #2]!	@ movhi
 208              		.loc 1 35 0 discriminator 3
 209 0092 F5D1     		bne	.L5
 210              		.loc 1 38 0
 211 0094 1C4B     		ldr	r3, .L18+16
 212 0096 B3F90030 		ldrsh	r3, [r3]
 213 009a 002B     		cmp	r3, #0
 214 009c 1ADD     		ble	.L6
 215              		.loc 1 39 0
 216 009e BDF80460 		ldrh	r6, [sp, #4]
 217              	.LVL15:
 218              		.loc 1 40 0
 219 00a2 BDF81210 		ldrh	r1, [sp, #18]
 220              		.loc 1 39 0
 221 00a6 BDF80620 		ldrh	r2, [sp, #6]
 222              		.loc 1 40 0
 223 00aa BDF81070 		ldrh	r7, [sp, #16]
 224              	.LVL16:
 225              		.loc 1 39 0
 226 00ae 9BB2     		uxth	r3, r3
 227 00b0 A3EBC606 		sub	r6, r3, r6, lsl #3
 228 00b4 A6EB8206 		sub	r6, r6, r2, lsl #2
ARM GAS  C:\Users\Valentin\AppData\Local\Temp\ccExQOPB.s 			page 5


 229              		.loc 1 40 0
 230 00b8 A3EBC103 		sub	r3, r3, r1, lsl #3
 231 00bc BDF80E20 		ldrh	r2, [sp, #14]
 232              		.loc 1 39 0
 233 00c0 BDF80810 		ldrh	r1, [sp, #8]
 234              		.loc 1 40 0
 235 00c4 A3EB8707 		sub	r7, r3, r7, lsl #2
 236              		.loc 1 39 0
 237 00c8 A6EB4106 		sub	r6, r6, r1, lsl #1
 238              		.loc 1 40 0
 239 00cc A7EB4207 		sub	r7, r7, r2, lsl #1
 240              		.loc 1 39 0
 241 00d0 36B2     		sxth	r6, r6
 242              	.LVL17:
 243              		.loc 1 40 0
 244 00d2 3FB2     		sxth	r7, r7
 245              	.LVL18:
 246              	.L6:
 247              		.loc 1 42 0
 248 00d4 3846     		mov	r0, r7
 249 00d6 FFF7FEFF 		bl	right_motor_set_speed
 250              	.LVL19:
 251              		.loc 1 43 0
 252 00da 3046     		mov	r0, r6
 253 00dc FFF7FEFF 		bl	left_motor_set_speed
 254              	.LVL20:
 255 00e0 A4E7     		b	.L4
 256              	.LVL21:
 257              	.L1:
 258              		.loc 1 49 0
 259 00e2 074B     		ldr	r3, .L18+8
 260 00e4 059A     		ldr	r2, [sp, #20]
 261 00e6 1B68     		ldr	r3, [r3]
 262 00e8 9A42     		cmp	r2, r3
 263 00ea 02D1     		bne	.L17
 264 00ec 07B0     		add	sp, sp, #28
 265              		.cfi_remember_state
 266              		.cfi_def_cfa_offset 36
 267              		@ sp needed
 268 00ee BDE8F08F 		pop	{r4, r5, r6, r7, r8, r9, r10, fp, pc}
 269              	.L17:
 270              		.cfi_restore_state
 271 00f2 FFF7FEFF 		bl	__stack_chk_fail
 272              	.LVL22:
 273              	.L19:
 274 00f6 00BF     		.align	2
 275              	.L18:
 276 00f8 00000000 		.word	ch
 277 00fc 00000000 		.word	.LANCHOR0
 278 0100 00000000 		.word	__stack_chk_guard
 279 0104 00000000 		.word	.LANCHOR1
 280 0108 00000000 		.word	.LANCHOR3
 281 010c 00000000 		.word	.LANCHOR2
 282              		.cfi_endproc
 283              	.LFE258:
 284              		.size	behaviors_thd, .-behaviors_thd
 285              		.section	.text.enable_obstacle_avoidance,"ax",%progbits
ARM GAS  C:\Users\Valentin\AppData\Local\Temp\ccExQOPB.s 			page 6


 286              		.align	1
 287              		.p2align 4,,15
 288              		.global	enable_obstacle_avoidance
 289              		.syntax unified
 290              		.thumb
 291              		.thumb_func
 292              		.fpu fpv4-sp-d16
 293              		.type	enable_obstacle_avoidance, %function
 294              	enable_obstacle_avoidance:
 295              	.LFB256:
 296              		.loc 1 12 0
 297              		.cfi_startproc
 298              		@ args = 0, pretend = 0, frame = 8
 299              		@ frame_needed = 0, uses_anonymous_args = 0
 300              	.LVL23:
 301 0000 30B5     		push	{r4, r5, lr}
 302              		.cfi_def_cfa_offset 12
 303              		.cfi_offset 4, -12
 304              		.cfi_offset 5, -8
 305              		.cfi_offset 14, -4
 306 0002 084B     		ldr	r3, .L24
 307              		.loc 1 13 0
 308 0004 084C     		ldr	r4, .L24+4
 309              		.loc 1 12 0
 310 0006 1A68     		ldr	r2, [r3]
 311              		.loc 1 14 0
 312 0008 0849     		ldr	r1, .L24+8
 313              		.loc 1 12 0
 314 000a 83B0     		sub	sp, sp, #12
 315              		.cfi_def_cfa_offset 24
 316              		.loc 1 13 0
 317 000c 0125     		movs	r5, #1
 318              		.loc 1 12 0
 319 000e 0192     		str	r2, [sp, #4]
 320              		.loc 1 15 0
 321 0010 019A     		ldr	r2, [sp, #4]
 322 0012 1B68     		ldr	r3, [r3]
 323              		.loc 1 13 0
 324 0014 2570     		strb	r5, [r4]
 325              		.loc 1 15 0
 326 0016 9A42     		cmp	r2, r3
 327              		.loc 1 14 0
 328 0018 0880     		strh	r0, [r1]	@ movhi
 329              		.loc 1 15 0
 330 001a 01D1     		bne	.L23
 331 001c 03B0     		add	sp, sp, #12
 332              		.cfi_remember_state
 333              		.cfi_def_cfa_offset 12
 334              		@ sp needed
 335 001e 30BD     		pop	{r4, r5, pc}
 336              	.L23:
 337              		.cfi_restore_state
 338 0020 FFF7FEFF 		bl	__stack_chk_fail
 339              	.LVL24:
 340              	.L25:
 341              		.align	2
 342              	.L24:
ARM GAS  C:\Users\Valentin\AppData\Local\Temp\ccExQOPB.s 			page 7


 343 0024 00000000 		.word	__stack_chk_guard
 344 0028 00000000 		.word	.LANCHOR2
 345 002c 00000000 		.word	.LANCHOR3
 346              		.cfi_endproc
 347              	.LFE256:
 348              		.size	enable_obstacle_avoidance, .-enable_obstacle_avoidance
 349              		.section	.text.disable_obstacle_avoidance,"ax",%progbits
 350              		.align	1
 351              		.p2align 4,,15
 352              		.global	disable_obstacle_avoidance
 353              		.syntax unified
 354              		.thumb
 355              		.thumb_func
 356              		.fpu fpv4-sp-d16
 357              		.type	disable_obstacle_avoidance, %function
 358              	disable_obstacle_avoidance:
 359              	.LFB257:
 360              		.loc 1 17 0
 361              		.cfi_startproc
 362              		@ args = 0, pretend = 0, frame = 8
 363              		@ frame_needed = 0, uses_anonymous_args = 0
 364 0000 00B5     		push	{lr}
 365              		.cfi_def_cfa_offset 4
 366              		.cfi_offset 14, -4
 367 0002 084B     		ldr	r3, .L30
 368              		.loc 1 18 0
 369 0004 0849     		ldr	r1, .L30+4
 370              		.loc 1 17 0
 371 0006 1A68     		ldr	r2, [r3]
 372 0008 83B0     		sub	sp, sp, #12
 373              		.cfi_def_cfa_offset 16
 374              		.loc 1 18 0
 375 000a 0020     		movs	r0, #0
 376              		.loc 1 17 0
 377 000c 0192     		str	r2, [sp, #4]
 378              		.loc 1 19 0
 379 000e 019A     		ldr	r2, [sp, #4]
 380 0010 1B68     		ldr	r3, [r3]
 381              		.loc 1 18 0
 382 0012 0870     		strb	r0, [r1]
 383              		.loc 1 19 0
 384 0014 9A42     		cmp	r2, r3
 385 0016 02D1     		bne	.L29
 386 0018 03B0     		add	sp, sp, #12
 387              		.cfi_remember_state
 388              		.cfi_def_cfa_offset 4
 389              		@ sp needed
 390 001a 5DF804FB 		ldr	pc, [sp], #4
 391              	.L29:
 392              		.cfi_restore_state
 393 001e FFF7FEFF 		bl	__stack_chk_fail
 394              	.LVL25:
 395              	.L31:
 396 0022 00BF     		.align	2
 397              	.L30:
 398 0024 00000000 		.word	__stack_chk_guard
 399 0028 00000000 		.word	.LANCHOR2
ARM GAS  C:\Users\Valentin\AppData\Local\Temp\ccExQOPB.s 			page 8


 400              		.cfi_endproc
 401              	.LFE257:
 402              		.size	disable_obstacle_avoidance, .-disable_obstacle_avoidance
 403              		.section	.text.behaviors_start,"ax",%progbits
 404              		.align	1
 405              		.p2align 4,,15
 406              		.global	behaviors_start
 407              		.syntax unified
 408              		.thumb
 409              		.thumb_func
 410              		.fpu fpv4-sp-d16
 411              		.type	behaviors_start, %function
 412              	behaviors_start:
 413              	.LFB259:
 414              		.loc 1 51 0
 415              		.cfi_startproc
 416              		@ args = 0, pretend = 0, frame = 8
 417              		@ frame_needed = 0, uses_anonymous_args = 0
 418 0000 10B5     		push	{r4, lr}
 419              		.cfi_def_cfa_offset 8
 420              		.cfi_offset 4, -8
 421              		.cfi_offset 14, -4
 422 0002 0A4C     		ldr	r4, .L36
 423              		.loc 1 52 0
 424 0004 0A4B     		ldr	r3, .L36+4
 425              		.loc 1 51 0
 426 0006 2268     		ldr	r2, [r4]
 427              		.loc 1 52 0
 428 0008 0A48     		ldr	r0, .L36+8
 429              		.loc 1 51 0
 430 000a 84B0     		sub	sp, sp, #16
 431              		.cfi_def_cfa_offset 24
 432              		.loc 1 52 0
 433 000c 4FF4FC71 		mov	r1, #504
 434              		.loc 1 51 0
 435 0010 0392     		str	r2, [sp, #12]
 436              		.loc 1 52 0
 437 0012 0022     		movs	r2, #0
 438 0014 0092     		str	r2, [sp]
 439 0016 4022     		movs	r2, #64
 440 0018 FFF7FEFF 		bl	chThdCreateStatic
 441              	.LVL26:
 442              		.loc 1 53 0
 443 001c 039A     		ldr	r2, [sp, #12]
 444 001e 2368     		ldr	r3, [r4]
 445 0020 9A42     		cmp	r2, r3
 446 0022 01D1     		bne	.L35
 447 0024 04B0     		add	sp, sp, #16
 448              		.cfi_remember_state
 449              		.cfi_def_cfa_offset 8
 450              		@ sp needed
 451 0026 10BD     		pop	{r4, pc}
 452              	.L35:
 453              		.cfi_restore_state
 454 0028 FFF7FEFF 		bl	__stack_chk_fail
 455              	.LVL27:
 456              	.L37:
ARM GAS  C:\Users\Valentin\AppData\Local\Temp\ccExQOPB.s 			page 9


 457              		.align	2
 458              	.L36:
 459 002c 00000000 		.word	__stack_chk_guard
 460 0030 00000000 		.word	behaviors_thd
 461 0034 00000000 		.word	.LANCHOR4
 462              		.cfi_endproc
 463              	.LFE259:
 464              		.size	behaviors_start, .-behaviors_start
 465              		.global	target_speed
 466              		.global	oa_enabled
 467              		.section	.bss.behaviors_thd_wa,"aw",%nobits
 468              		.align	3
 469              		.set	.LANCHOR4,. + 0
 470              		.type	behaviors_thd_wa, %object
 471              		.size	behaviors_thd_wa, 504
 472              	behaviors_thd_wa:
 473 0000 00000000 		.space	504
 473      00000000 
 473      00000000 
 473      00000000 
 473      00000000 
 474              		.section	.bss.oa_enabled,"aw",%nobits
 475              		.set	.LANCHOR2,. + 0
 476              		.type	oa_enabled, %object
 477              		.size	oa_enabled, 1
 478              	oa_enabled:
 479 0000 00       		.space	1
 480              		.section	.bss.target_speed,"aw",%nobits
 481              		.align	1
 482              		.set	.LANCHOR3,. + 0
 483              		.type	target_speed, %object
 484              		.size	target_speed, 2
 485              	target_speed:
 486 0000 0000     		.space	2
 487              		.section	.rodata.__FUNCTION__.9894,"a",%progbits
 488              		.align	2
 489              		.set	.LANCHOR0,. + 0
 490              		.type	__FUNCTION__.9894, %object
 491              		.size	__FUNCTION__.9894, 14
 492              	__FUNCTION__.9894:
 493 0000 62656861 		.ascii	"behaviors_thd\000"
 493      76696F72 
 493      735F7468 
 493      6400
 494              		.section	.rodata.__func__.7153,"a",%progbits
 495              		.align	2
 496              		.set	.LANCHOR1,. + 0
 497              		.type	__func__.7153, %object
 498              		.size	__func__.7153, 12
 499              	__func__.7153:
 500 0000 63685379 		.ascii	"chSysUnlock\000"
 500      73556E6C 
 500      6F636B00 
 501              		.text
 502              	.Letext0:
 503              		.file 7 "c:\\users\\valentin\\desktop\\eclipse_e-puck2\\tools\\gcc-arm-none-eabi-7-2017-q4-major-w
 504              		.file 8 "c:\\users\\valentin\\desktop\\eclipse_e-puck2\\tools\\gcc-arm-none-eabi-7-2017-q4-major-w
ARM GAS  C:\Users\Valentin\AppData\Local\Temp\ccExQOPB.s 			page 10


 505              		.file 9 "c:\\users\\valentin\\desktop\\eclipse_e-puck2\\tools\\gcc-arm-none-eabi-7-2017-q4-major-w
 506              		.file 10 "../e-puck2_main-processor/ChibiOS//os/rt/ports/ARMCMx/compilers/GCC/chtypes.h"
 507              		.file 11 "../e-puck2_main-processor/ChibiOS//os/rt/include/chsystypes.h"
 508              		.file 12 "../e-puck2_main-processor/ChibiOS//os/rt/include/chschd.h"
 509              		.file 13 "../e-puck2_main-processor/ChibiOS//os/ext/CMSIS/include/core_cm4.h"
 510              		.file 14 "../e-puck2_main-processor/ChibiOS//os/ext/CMSIS/ST/system_stm32f4xx.h"
 511              		.file 15 "../e-puck2_main-processor/ChibiOS//os/ext/CMSIS/ST/stm32f407xx.h"
 512              		.file 16 "../e-puck2_main-processor/ChibiOS//os/rt/ports/ARMCMx/chcore.h"
 513              		.file 17 "../e-puck2_main-processor/ChibiOS//os/rt/ports/ARMCMx/chcore_v7m.h"
 514              		.file 18 "../e-puck2_main-processor/ChibiOS//os/rt/include/chdebug.h"
 515              		.file 19 "../e-puck2_main-processor/ChibiOS//os/rt/include/chtm.h"
 516              		.file 20 "../e-puck2_main-processor/ChibiOS//os/rt/include/chstats.h"
 517              		.file 21 "../e-puck2_main-processor/ChibiOS//os/rt/include/chsem.h"
 518              		.file 22 "../e-puck2_main-processor/ChibiOS//os/rt/include/chmtx.h"
 519              		.file 23 "../e-puck2_main-processor/ChibiOS//os/rt/include/chevents.h"
 520              		.file 24 "../e-puck2_main-processor/ChibiOS//os/rt/include/chqueues.h"
 521              		.file 25 "../e-puck2_main-processor/ChibiOS//os/hal/ports/STM32/STM32F4xx/stm32_dma.h"
 522              		.file 26 "../e-puck2_main-processor/ChibiOS//os/hal/include/hal_ioblock.h"
 523              		.file 27 "../e-puck2_main-processor/ChibiOS//os/hal/ports/STM32/LLD/GPIOv2/pal_lld.h"
 524              		.file 28 "../e-puck2_main-processor/ChibiOS//os/hal/include/adc.h"
 525              		.file 29 "../e-puck2_main-processor/ChibiOS//os/hal/ports/STM32/STM32F4xx/adc_lld.h"
 526              		.file 30 "../e-puck2_main-processor/ChibiOS//os/hal/include/can.h"
 527              		.file 31 "../e-puck2_main-processor/ChibiOS//os/hal/ports/STM32/LLD/can_lld.h"
 528              		.file 32 "../e-puck2_main-processor/ChibiOS//os/hal/include/dac.h"
 529              		.file 33 "../e-puck2_main-processor/ChibiOS//os/hal/ports/STM32/LLD/DACv1/dac_lld.h"
 530              		.file 34 "../e-puck2_main-processor/ChibiOS//os/hal/include/ext.h"
 531              		.file 35 "../e-puck2_main-processor/ChibiOS//os/hal/ports/STM32/LLD/ext_lld.h"
 532              		.file 36 "../e-puck2_main-processor/ChibiOS//os/hal/include/gpt.h"
 533              		.file 37 "../e-puck2_main-processor/ChibiOS//os/hal/ports/STM32/LLD/TIMv1/gpt_lld.h"
 534              		.file 38 "../e-puck2_main-processor/ChibiOS//os/hal/ports/STM32/LLD/TIMv1/stm32_tim.h"
 535              		.file 39 "../e-puck2_main-processor/ChibiOS//os/hal/include/i2c.h"
 536              		.file 40 "../e-puck2_main-processor/ChibiOS//os/hal/ports/STM32/LLD/I2Cv1/i2c_lld.h"
 537              		.file 41 "../e-puck2_main-processor/ChibiOS//os/hal/include/i2s.h"
 538              		.file 42 "../e-puck2_main-processor/ChibiOS//os/hal/ports/STM32/LLD/SPIv1/i2s_lld.h"
 539              		.file 43 "../e-puck2_main-processor/ChibiOS//os/hal/include/pwm.h"
 540              		.file 44 "../e-puck2_main-processor/ChibiOS//os/hal/ports/STM32/LLD/TIMv1/pwm_lld.h"
 541              		.file 45 "../e-puck2_main-processor/ChibiOS//os/hal/include/serial.h"
 542              		.file 46 "../e-puck2_main-processor/ChibiOS//os/hal/ports/STM32/LLD/USARTv1/serial_lld.h"
 543              		.file 47 "../e-puck2_main-processor/ChibiOS//os/hal/include/sdc.h"
 544              		.file 48 "../e-puck2_main-processor/ChibiOS//os/hal/ports/STM32/LLD/sdc_lld.h"
 545              		.file 49 "../e-puck2_main-processor/ChibiOS//os/hal/include/spi.h"
 546              		.file 50 "../e-puck2_main-processor/ChibiOS//os/hal/ports/STM32/LLD/SPIv1/spi_lld.h"
 547              		.file 51 "../e-puck2_main-processor/ChibiOS//os/hal/include/usb.h"
 548              		.file 52 "../e-puck2_main-processor/ChibiOS//os/hal/ports/STM32/LLD/OTGv1/usb_lld.h"
 549              		.file 53 "../e-puck2_main-processor/ChibiOS//os/hal/ports/STM32/LLD/OTGv1/stm32_otg.h"
 550              		.file 54 "../e-puck2_main-processor/src/sensors/proximity.h"
 551              		.file 55 "../e-puck2_main-processor/src/motors.h"