ARM GAS  C:\Users\Valentin\AppData\Local\Temp\ccpjkBIQ.s 			page 1


   1              		.cpu cortex-m4
   2              		.eabi_attribute 27, 1
   3              		.eabi_attribute 28, 1
   4              		.eabi_attribute 20, 1
   5              		.eabi_attribute 21, 1
   6              		.eabi_attribute 23, 3
   7              		.eabi_attribute 24, 1
   8              		.eabi_attribute 25, 1
   9              		.eabi_attribute 26, 1
  10              		.eabi_attribute 30, 2
  11              		.eabi_attribute 34, 1
  12              		.eabi_attribute 18, 4
  13              		.file	"color.c"
  14              		.text
  15              	.Ltext0:
  16              		.cfi_sections	.debug_frame
  17              		.section	.text.ProcessImage,"ax",%progbits
  18              		.align	1
  19              		.p2align 4,,15
  20              		.syntax unified
  21              		.thumb
  22              		.thumb_func
  23              		.fpu fpv4-sp-d16
  24              		.type	ProcessImage, %function
  25              	ProcessImage:
  26              	.LFB259:
  27              		.file 1 "color.c"
  28              		.loc 1 62 0
  29              		.cfi_startproc
  30              		@ args = 0, pretend = 0, frame = 8
  31              		@ frame_needed = 0, uses_anonymous_args = 0
  32              	.LVL0:
  33 0000 2DE9F04F 		push	{r4, r5, r6, r7, r8, r9, r10, fp, lr}
  34              		.cfi_def_cfa_offset 36
  35              		.cfi_offset 4, -36
  36              		.cfi_offset 5, -32
  37              		.cfi_offset 6, -28
  38              		.cfi_offset 7, -24
  39              		.cfi_offset 8, -20
  40              		.cfi_offset 9, -16
  41              		.cfi_offset 10, -12
  42              		.cfi_offset 11, -8
  43              		.cfi_offset 14, -4
  44              	.LBB50:
  45              	.LBB51:
  46              		.file 2 "c:\\users\\valentin\\desktop\\microinformatique-tp\\autres\\e-puck2_main-processor\\chibi
  47              		.loc 2 135 0
  48 0004 2D4A     		ldr	r2, .L14
  49              	.LBE51:
  50              	.LBE50:
  51              		.loc 1 62 0
  52 0006 2E4B     		ldr	r3, .L14+4
  53              	.LBB54:
  54              	.LBB52:
  55              		.loc 2 135 0
  56 0008 9269     		ldr	r2, [r2, #24]
  57 000a 2E4F     		ldr	r7, .L14+8
ARM GAS  C:\Users\Valentin\AppData\Local\Temp\ccpjkBIQ.s 			page 2


  58 000c 2E4E     		ldr	r6, .L14+12
  59 000e 2F4D     		ldr	r5, .L14+16
  60 0010 2F49     		ldr	r1, .L14+20
  61              	.LBE52:
  62              	.LBE54:
  63              		.loc 1 62 0
  64 0012 1B68     		ldr	r3, [r3]
  65              	.LBB55:
  66              	.LBB56:
  67              		.loc 1 32 0
  68 0014 DFF8D8B0 		ldr	fp, .L14+52
  69              	.LBE56:
  70              	.LBE55:
  71              	.LBB59:
  72              	.LBB53:
  73              		.loc 2 135 0
  74 0018 9161     		str	r1, [r2, #24]
  75              	.LBE53:
  76              	.LBE59:
  77              		.loc 1 62 0
  78 001a 83B0     		sub	sp, sp, #12
  79              		.cfi_def_cfa_offset 48
  80 001c 07F2DF1A 		addw	r10, r7, #479
  81              		.loc 1 62 0
  82 0020 0193     		str	r3, [sp, #4]
  83              	.LVL1:
  84 0022 06F2DF19 		addw	r9, r6, #479
  85 0026 05F2DF18 		addw	r8, r5, #479
  86              	.LVL2:
  87              	.L6:
  88              	.LBB60:
  89              	.LBB61:
  90              		.file 3 "c:\\users\\valentin\\desktop\\microinformatique-tp\\autres\\e-puck2_main-processor\\chibi
  91              		.loc 3 143 0
  92 002a 2A48     		ldr	r0, .L14+24
  93 002c FFF7FEFF 		bl	chSemWait
  94              	.LVL3:
  95              	.LBE61:
  96              	.LBE60:
  97              		.loc 1 73 0
  98 0030 FFF7FEFF 		bl	dcmi_get_last_image_ptr
  99              	.LVL4:
 100 0034 0022     		movs	r2, #0
 101 0036 0146     		mov	r1, r0
 102 0038 00F5A06C 		add	ip, r0, #1280
 103              	.LVL5:
 104              	.L2:
 105              	.LBB62:
 106              		.loc 1 76 0 discriminator 3
 107 003c 835C     		ldrb	r3, [r0, r2]	@ zero_extendqisi2
 108 003e C2F34E04 		ubfx	r4, r2, #1, #15
 109 0042 DB08     		lsrs	r3, r3, #3
 110 0044 3B55     		strb	r3, [r7, r4]
 111              		.loc 1 77 0 discriminator 3
 112 0046 4B78     		ldrb	r3, [r1, #1]	@ zero_extendqisi2
 113 0048 03F01F03 		and	r3, r3, #31
 114 004c 3355     		strb	r3, [r6, r4]
ARM GAS  C:\Users\Valentin\AppData\Local\Temp\ccpjkBIQ.s 			page 3


 115              		.loc 1 78 0 discriminator 3
 116 004e 835C     		ldrb	r3, [r0, r2]	@ zero_extendqisi2
 117 0050 91F801E0 		ldrb	lr, [r1, #1]	@ zero_extendqisi2
 118 0054 DB00     		lsls	r3, r3, #3
 119 0056 03F03803 		and	r3, r3, #56
 120 005a 0231     		adds	r1, r1, #2
 121 005c 43EA5E13 		orr	r3, r3, lr, lsr #5
 122              		.loc 1 75 0 discriminator 3
 123 0060 8C45     		cmp	ip, r1
 124 0062 02F10202 		add	r2, r2, #2
 125              	.LVL6:
 126              		.loc 1 78 0 discriminator 3
 127 0066 2B55     		strb	r3, [r5, r4]
 128              		.loc 1 75 0 discriminator 3
 129 0068 E8D1     		bne	.L2
 130 006a 1B4B     		ldr	r3, .L14+28
 131              	.LBE62:
 132              	.LBB63:
 133              	.LBB58:
 134              		.loc 1 28 0
 135 006c 0022     		movs	r2, #0
 136              	.L3:
 137              	.LVL7:
 138              	.LBB57:
 139              		.loc 1 30 0
 140 006e 13F8011F 		ldrb	r1, [r3, #1]!	@ zero_extendqisi2
 141              	.LVL8:
 142              		.loc 1 29 0
 143 0072 9A45     		cmp	r10, r3
 144              		.loc 1 30 0
 145 0074 0A44     		add	r2, r2, r1
 146              	.LVL9:
 147              		.loc 1 29 0
 148 0076 FAD1     		bne	.L3
 149              	.LVL10:
 150              	.LBE57:
 151              		.loc 1 32 0
 152 0078 ABFB0232 		umull	r3, r2, fp, r2
 153              	.LBE58:
 154              	.LBE63:
 155              		.loc 1 80 0
 156 007c 1749     		ldr	r1, .L14+32
 157 007e 184B     		ldr	r3, .L14+36
 158 0080 C2F30722 		ubfx	r2, r2, #8, #8
 159 0084 0A60     		str	r2, [r1]
 160              	.LVL11:
 161              	.LBB64:
 162              	.LBB65:
 163              		.loc 1 28 0
 164 0086 0022     		movs	r2, #0
 165              	.LVL12:
 166              	.L4:
 167              	.LBB66:
 168              		.loc 1 30 0
 169 0088 13F8011F 		ldrb	r1, [r3, #1]!	@ zero_extendqisi2
 170              	.LVL13:
 171              		.loc 1 29 0
ARM GAS  C:\Users\Valentin\AppData\Local\Temp\ccpjkBIQ.s 			page 4


 172 008c 9945     		cmp	r9, r3
 173              		.loc 1 30 0
 174 008e 0A44     		add	r2, r2, r1
 175              	.LVL14:
 176              		.loc 1 29 0
 177 0090 FAD1     		bne	.L4
 178              	.LVL15:
 179              	.LBE66:
 180              		.loc 1 32 0
 181 0092 ABFB0232 		umull	r3, r2, fp, r2
 182              	.LBE65:
 183              	.LBE64:
 184              		.loc 1 81 0
 185 0096 1349     		ldr	r1, .L14+40
 186 0098 134B     		ldr	r3, .L14+44
 187 009a C2F30722 		ubfx	r2, r2, #8, #8
 188 009e 0A60     		str	r2, [r1]
 189              	.LVL16:
 190              	.LBB67:
 191              	.LBB68:
 192              		.loc 1 28 0
 193 00a0 0022     		movs	r2, #0
 194              	.LVL17:
 195              	.L5:
 196              	.LBB69:
 197              		.loc 1 30 0
 198 00a2 13F8011F 		ldrb	r1, [r3, #1]!	@ zero_extendqisi2
 199              	.LVL18:
 200              		.loc 1 29 0
 201 00a6 9845     		cmp	r8, r3
 202              		.loc 1 30 0
 203 00a8 0A44     		add	r2, r2, r1
 204              	.LVL19:
 205              		.loc 1 29 0
 206 00aa FAD1     		bne	.L5
 207              	.LVL20:
 208              	.LBE69:
 209              		.loc 1 32 0
 210 00ac ABFB0223 		umull	r2, r3, fp, r2
 211              	.LBE68:
 212              	.LBE67:
 213              		.loc 1 82 0
 214 00b0 0E4A     		ldr	r2, .L14+48
 215 00b2 C3F30723 		ubfx	r3, r3, #8, #8
 216 00b6 1360     		str	r3, [r2]
 217              		.loc 1 72 0
 218 00b8 B7E7     		b	.L6
 219              	.L15:
 220 00ba 00BF     		.align	2
 221              	.L14:
 222 00bc 00000000 		.word	ch
 223 00c0 00000000 		.word	__stack_chk_guard
 224 00c4 00000000 		.word	.LANCHOR2
 225 00c8 00000000 		.word	.LANCHOR3
 226 00cc 00000000 		.word	.LANCHOR4
 227 00d0 00000000 		.word	.LANCHOR0
 228 00d4 00000000 		.word	.LANCHOR1
ARM GAS  C:\Users\Valentin\AppData\Local\Temp\ccpjkBIQ.s 			page 5


 229 00d8 9F000000 		.word	.LANCHOR2+159
 230 00dc 00000000 		.word	.LANCHOR5
 231 00e0 9F000000 		.word	.LANCHOR3+159
 232 00e4 00000000 		.word	.LANCHOR6
 233 00e8 9F000000 		.word	.LANCHOR4+159
 234 00ec 00000000 		.word	.LANCHOR7
 235 00f0 CDCCCCCC 		.word	-858993459
 236              		.cfi_endproc
 237              	.LFE259:
 238              		.size	ProcessImage, .-ProcessImage
 239              		.section	.text.CaptureImage,"ax",%progbits
 240              		.align	1
 241              		.p2align 4,,15
 242              		.syntax unified
 243              		.thumb
 244              		.thumb_func
 245              		.fpu fpv4-sp-d16
 246              		.type	CaptureImage, %function
 247              	CaptureImage:
 248              	.LFB258:
 249              		.loc 1 38 0
 250              		.cfi_startproc
 251              		@ Volatile: function does not return.
 252              		@ args = 0, pretend = 0, frame = 8
 253              		@ frame_needed = 0, uses_anonymous_args = 0
 254              	.LVL21:
 255 0000 80B5     		push	{r7, lr}
 256              		.cfi_def_cfa_offset 8
 257              		.cfi_offset 7, -8
 258              		.cfi_offset 14, -4
 259              	.LBB86:
 260              	.LBB87:
 261              		.loc 2 135 0
 262 0002 244C     		ldr	r4, .L22
 263              	.LBE87:
 264              	.LBE86:
 265              		.loc 1 38 0
 266 0004 244A     		ldr	r2, .L22+4
 267              	.LBB89:
 268              	.LBB88:
 269              		.loc 2 135 0
 270 0006 A369     		ldr	r3, [r4, #24]
 271 0008 2449     		ldr	r1, .L22+8
 272 000a 9961     		str	r1, [r3, #24]
 273              	.LBE88:
 274              	.LBE89:
 275              		.loc 1 38 0
 276 000c 86B0     		sub	sp, sp, #24
 277              		.cfi_def_cfa_offset 32
 278              		.loc 1 44 0
 279 000e 0223     		movs	r3, #2
 280 0010 2025     		movs	r5, #32
 281              		.loc 1 38 0
 282 0012 1668     		ldr	r6, [r2]
 283              		.loc 1 44 0
 284 0014 0093     		str	r3, [sp]
 285 0016 0A22     		movs	r2, #10
ARM GAS  C:\Users\Valentin\AppData\Local\Temp\ccpjkBIQ.s 			page 6


 286 0018 4FF42073 		mov	r3, #640
 287 001c 0021     		movs	r1, #0
 288 001e CDE90155 		strd	r5, r5, [sp, #4]
 289 0022 3020     		movs	r0, #48
 290              	.LVL22:
 291              		.loc 1 38 0
 292 0024 0596     		str	r6, [sp, #20]
 293              		.loc 1 44 0
 294 0026 FFF7FEFF 		bl	po8030_advanced_config
 295              	.LVL23:
 296 002a 1D4E     		ldr	r6, .L22+12
 297              	.LBB90:
 298              	.LBB91:
 299              	.LBB92:
 300              	.LBB93:
 301              		.file 4 "c:\\users\\valentin\\desktop\\microinformatique-tp\\autres\\e-puck2_main-processor\\chibi
 302              		.loc 4 367 0
 303 002c 1D4F     		ldr	r7, .L22+16
 304              	.LBE93:
 305              	.LBE92:
 306              	.LBE91:
 307              	.LBE90:
 308              		.loc 1 45 0
 309 002e 0020     		movs	r0, #0
 310 0030 FFF7FEFF 		bl	po8030_set_awb
 311              	.LVL24:
 312              		.loc 1 46 0
 313 0034 FFF7FEFF 		bl	dcmi_enable_double_buffering
 314              	.LVL25:
 315              		.loc 1 47 0
 316 0038 0020     		movs	r0, #0
 317 003a FFF7FEFF 		bl	dcmi_set_capture_mode
 318              	.LVL26:
 319              	.LBB111:
 320              	.LBB108:
 321              	.LBB98:
 322              	.LBB99:
 323              		.loc 3 271 0
 324 003e B046     		mov	r8, r6
 325              	.LBE99:
 326              	.LBE98:
 327              	.LBE108:
 328              	.LBE111:
 329              		.loc 1 48 0
 330 0040 FFF7FEFF 		bl	dcmi_prepare
 331              	.LVL27:
 332 0044 13E0     		b	.L19
 333              	.LVL28:
 334              	.L17:
 335              	.LBB112:
 336              	.LBB109:
 337              		.loc 3 286 0
 338 0046 FFF7FEFF 		bl	chSchRescheduleS
 339              	.LVL29:
 340              	.LBB101:
 341              	.LBB97:
 342              		.loc 4 360 0
ARM GAS  C:\Users\Valentin\AppData\Local\Temp\ccpjkBIQ.s 			page 7


 343 004a FFF7FEFF 		bl	_dbg_check_unlock
 344              	.LVL30:
 345              		.loc 4 361 0
 346 004e FFF7FEFF 		bl	_stats_stop_measure_crit_thd
 347              	.LVL31:
 348              		.loc 4 367 0
 349 0052 2368     		ldr	r3, [r4]
 350 0054 A342     		cmp	r3, r4
 351 0056 07D0     		beq	.L18
 352 0058 A269     		ldr	r2, [r4, #24]
 353 005a 9B68     		ldr	r3, [r3, #8]
 354 005c 9268     		ldr	r2, [r2, #8]
 355 005e 9A42     		cmp	r2, r3
 356 0060 02D2     		bcs	.L18
 357 0062 3846     		mov	r0, r7
 358 0064 FFF7FEFF 		bl	chSysHalt
 359              	.LVL32:
 360              	.L18:
 361              	.LBB94:
 362              	.LBB95:
 363              	.LBB96:
 364              		.file 5 "c:\\users\\valentin\\desktop\\microinformatique-tp\\autres\\e-puck2_main-processor\\chibi
 365              		.loc 5 546 0
 366 0068 0023     		movs	r3, #0
 367              		.syntax unified
 368              	@ 546 "c:\users\valentin\desktop\microinformatique-tp\autres\e-puck2_main-processor\chibios\os\ext\
 369 006a 83F31188 		MSR basepri, r3
 370              	@ 0 "" 2
 371              	.LVL33:
 372              		.thumb
 373              		.syntax unified
 374              	.L19:
 375              	.LBE96:
 376              	.LBE95:
 377              	.LBE94:
 378              	.LBE97:
 379              	.LBE101:
 380              	.LBE109:
 381              	.LBE112:
 382              		.loc 1 52 0 discriminator 1
 383 006e FFF7FEFF 		bl	dcmi_capture_start
 384              	.LVL34:
 385              		.loc 1 54 0 discriminator 1
 386 0072 FFF7FEFF 		bl	wait_image_ready
 387              	.LVL35:
 388              	.LBB113:
 389              	.LBB110:
 390              	.LBB102:
 391              	.LBB103:
 392              	.LBB104:
 393              	.LBB105:
 394              	.LBB106:
 395              		.loc 5 546 0 discriminator 1
 396              		.syntax unified
 397              	@ 546 "c:\users\valentin\desktop\microinformatique-tp\autres\e-puck2_main-processor\chibios\os\ext\
 398 0076 85F31188 		MSR basepri, r5
 399              	@ 0 "" 2
ARM GAS  C:\Users\Valentin\AppData\Local\Temp\ccpjkBIQ.s 			page 8


 400              	.LVL36:
 401              		.thumb
 402              		.syntax unified
 403              	.LBE106:
 404              	.LBE105:
 405              	.LBE104:
 406              		.loc 4 349 0 discriminator 1
 407 007a FFF7FEFF 		bl	_stats_start_measure_crit_thd
 408              	.LVL37:
 409              		.loc 4 350 0 discriminator 1
 410 007e FFF7FEFF 		bl	_dbg_check_lock
 411              	.LVL38:
 412              	.LBE103:
 413              	.LBE102:
 414              	.LBB107:
 415              	.LBB100:
 416              		.loc 3 268 0 discriminator 1
 417 0082 FFF7FEFF 		bl	chDbgCheckClassI
 418              	.LVL39:
 419              		.loc 3 270 0 discriminator 1
 420 0086 B368     		ldr	r3, [r6, #8]
 421 0088 002B     		cmp	r3, #0
 422 008a DCDC     		bgt	.L17
 423              		.loc 3 271 0
 424 008c 4046     		mov	r0, r8
 425 008e FFF7FEFF 		bl	chSemSignalI
 426              	.LVL40:
 427 0092 D8E7     		b	.L17
 428              	.L23:
 429              		.align	2
 430              	.L22:
 431 0094 00000000 		.word	ch
 432 0098 00000000 		.word	__stack_chk_guard
 433 009c 00000000 		.word	.LANCHOR8
 434 00a0 00000000 		.word	.LANCHOR1
 435 00a4 00000000 		.word	.LANCHOR9
 436              	.LBE100:
 437              	.LBE107:
 438              	.LBE110:
 439              	.LBE113:
 440              		.cfi_endproc
 441              	.LFE258:
 442              		.size	CaptureImage, .-CaptureImage
 443              		.section	.text.color_line,"ax",%progbits
 444              		.align	1
 445              		.p2align 4,,15
 446              		.global	color_line
 447              		.syntax unified
 448              		.thumb
 449              		.thumb_func
 450              		.fpu fpv4-sp-d16
 451              		.type	color_line, %function
 452              	color_line:
 453              	.LFB257:
 454              		.loc 1 27 0
 455              		.cfi_startproc
 456              		@ args = 0, pretend = 0, frame = 8
ARM GAS  C:\Users\Valentin\AppData\Local\Temp\ccpjkBIQ.s 			page 9


 457              		@ frame_needed = 0, uses_anonymous_args = 0
 458              	.LVL41:
 459 0000 10B5     		push	{r4, lr}
 460              		.cfi_def_cfa_offset 8
 461              		.cfi_offset 4, -8
 462              		.cfi_offset 14, -4
 463 0002 0D4C     		ldr	r4, .L30
 464 0004 82B0     		sub	sp, sp, #8
 465              		.cfi_def_cfa_offset 16
 466              		.loc 1 27 0
 467 0006 2368     		ldr	r3, [r4]
 468 0008 0193     		str	r3, [sp, #4]
 469              	.LVL42:
 470              		.loc 1 28 0
 471 000a 0022     		movs	r2, #0
 472 000c 00F19F03 		add	r3, r0, #159
 473 0010 00F2DF10 		addw	r0, r0, #479
 474              	.LVL43:
 475              	.L25:
 476              	.LBB114:
 477              		.loc 1 30 0 discriminator 3
 478 0014 13F8011F 		ldrb	r1, [r3, #1]!	@ zero_extendqisi2
 479              	.LVL44:
 480              		.loc 1 29 0 discriminator 3
 481 0018 9842     		cmp	r0, r3
 482              		.loc 1 30 0 discriminator 3
 483 001a 0A44     		add	r2, r2, r1
 484              	.LVL45:
 485              		.loc 1 29 0 discriminator 3
 486 001c FAD1     		bne	.L25
 487              	.LVL46:
 488              	.LBE114:
 489              		.loc 1 34 0
 490 001e 0199     		ldr	r1, [sp, #4]
 491              		.loc 1 32 0
 492 0020 0648     		ldr	r0, .L30+4
 493              	.LVL47:
 494              		.loc 1 34 0
 495 0022 2368     		ldr	r3, [r4]
 496              	.LVL48:
 497              		.loc 1 32 0
 498 0024 A0FB0220 		umull	r2, r0, r0, r2
 499              	.LVL49:
 500              		.loc 1 34 0
 501 0028 9942     		cmp	r1, r3
 502 002a C0F30720 		ubfx	r0, r0, #8, #8
 503 002e 01D1     		bne	.L29
 504 0030 02B0     		add	sp, sp, #8
 505              		.cfi_remember_state
 506              		.cfi_def_cfa_offset 8
 507              		@ sp needed
 508 0032 10BD     		pop	{r4, pc}
 509              	.L29:
 510              		.cfi_restore_state
 511 0034 FFF7FEFF 		bl	__stack_chk_fail
 512              	.LVL50:
 513              	.L31:
ARM GAS  C:\Users\Valentin\AppData\Local\Temp\ccpjkBIQ.s 			page 10


 514              		.align	2
 515              	.L30:
 516 0038 00000000 		.word	__stack_chk_guard
 517 003c CDCCCCCC 		.word	-858993459
 518              		.cfi_endproc
 519              	.LFE257:
 520              		.size	color_line, .-color_line
 521              		.section	.text.get_red,"ax",%progbits
 522              		.align	1
 523              		.p2align 4,,15
 524              		.global	get_red
 525              		.syntax unified
 526              		.thumb
 527              		.thumb_func
 528              		.fpu fpv4-sp-d16
 529              		.type	get_red, %function
 530              	get_red:
 531              	.LFB260:
 532              		.loc 1 86 0
 533              		.cfi_startproc
 534              		@ args = 0, pretend = 0, frame = 8
 535              		@ frame_needed = 0, uses_anonymous_args = 0
 536 0000 00B5     		push	{lr}
 537              		.cfi_def_cfa_offset 4
 538              		.cfi_offset 14, -4
 539 0002 074B     		ldr	r3, .L36
 540              		.loc 1 87 0
 541 0004 0749     		ldr	r1, .L36+4
 542              		.loc 1 86 0
 543 0006 1A68     		ldr	r2, [r3]
 544              		.loc 1 88 0
 545 0008 0868     		ldr	r0, [r1]
 546              		.loc 1 86 0
 547 000a 83B0     		sub	sp, sp, #12
 548              		.cfi_def_cfa_offset 16
 549              		.loc 1 86 0
 550 000c 0192     		str	r2, [sp, #4]
 551              		.loc 1 88 0
 552 000e 019A     		ldr	r2, [sp, #4]
 553 0010 1B68     		ldr	r3, [r3]
 554 0012 9A42     		cmp	r2, r3
 555 0014 02D1     		bne	.L35
 556 0016 03B0     		add	sp, sp, #12
 557              		.cfi_remember_state
 558              		.cfi_def_cfa_offset 4
 559              		@ sp needed
 560 0018 5DF804FB 		ldr	pc, [sp], #4
 561              	.L35:
 562              		.cfi_restore_state
 563 001c FFF7FEFF 		bl	__stack_chk_fail
 564              	.LVL51:
 565              	.L37:
 566              		.align	2
 567              	.L36:
 568 0020 00000000 		.word	__stack_chk_guard
 569 0024 00000000 		.word	.LANCHOR5
 570              		.cfi_endproc
ARM GAS  C:\Users\Valentin\AppData\Local\Temp\ccpjkBIQ.s 			page 11


 571              	.LFE260:
 572              		.size	get_red, .-get_red
 573              		.section	.text.get_blue,"ax",%progbits
 574              		.align	1
 575              		.p2align 4,,15
 576              		.global	get_blue
 577              		.syntax unified
 578              		.thumb
 579              		.thumb_func
 580              		.fpu fpv4-sp-d16
 581              		.type	get_blue, %function
 582              	get_blue:
 583              	.LFB261:
 584              		.loc 1 89 0
 585              		.cfi_startproc
 586              		@ args = 0, pretend = 0, frame = 8
 587              		@ frame_needed = 0, uses_anonymous_args = 0
 588 0000 00B5     		push	{lr}
 589              		.cfi_def_cfa_offset 4
 590              		.cfi_offset 14, -4
 591 0002 074B     		ldr	r3, .L42
 592              		.loc 1 90 0
 593 0004 0749     		ldr	r1, .L42+4
 594              		.loc 1 89 0
 595 0006 1A68     		ldr	r2, [r3]
 596              		.loc 1 91 0
 597 0008 0868     		ldr	r0, [r1]
 598              		.loc 1 89 0
 599 000a 83B0     		sub	sp, sp, #12
 600              		.cfi_def_cfa_offset 16
 601              		.loc 1 89 0
 602 000c 0192     		str	r2, [sp, #4]
 603              		.loc 1 91 0
 604 000e 019A     		ldr	r2, [sp, #4]
 605 0010 1B68     		ldr	r3, [r3]
 606 0012 9A42     		cmp	r2, r3
 607 0014 02D1     		bne	.L41
 608 0016 03B0     		add	sp, sp, #12
 609              		.cfi_remember_state
 610              		.cfi_def_cfa_offset 4
 611              		@ sp needed
 612 0018 5DF804FB 		ldr	pc, [sp], #4
 613              	.L41:
 614              		.cfi_restore_state
 615 001c FFF7FEFF 		bl	__stack_chk_fail
 616              	.LVL52:
 617              	.L43:
 618              		.align	2
 619              	.L42:
 620 0020 00000000 		.word	__stack_chk_guard
 621 0024 00000000 		.word	.LANCHOR6
 622              		.cfi_endproc
 623              	.LFE261:
 624              		.size	get_blue, .-get_blue
 625              		.section	.text.get_green,"ax",%progbits
 626              		.align	1
 627              		.p2align 4,,15
ARM GAS  C:\Users\Valentin\AppData\Local\Temp\ccpjkBIQ.s 			page 12


 628              		.global	get_green
 629              		.syntax unified
 630              		.thumb
 631              		.thumb_func
 632              		.fpu fpv4-sp-d16
 633              		.type	get_green, %function
 634              	get_green:
 635              	.LFB262:
 636              		.loc 1 92 0
 637              		.cfi_startproc
 638              		@ args = 0, pretend = 0, frame = 8
 639              		@ frame_needed = 0, uses_anonymous_args = 0
 640 0000 00B5     		push	{lr}
 641              		.cfi_def_cfa_offset 4
 642              		.cfi_offset 14, -4
 643 0002 074B     		ldr	r3, .L48
 644              		.loc 1 93 0
 645 0004 0749     		ldr	r1, .L48+4
 646              		.loc 1 92 0
 647 0006 1A68     		ldr	r2, [r3]
 648              		.loc 1 94 0
 649 0008 0868     		ldr	r0, [r1]
 650              		.loc 1 92 0
 651 000a 83B0     		sub	sp, sp, #12
 652              		.cfi_def_cfa_offset 16
 653              		.loc 1 92 0
 654 000c 0192     		str	r2, [sp, #4]
 655              		.loc 1 94 0
 656 000e 019A     		ldr	r2, [sp, #4]
 657 0010 1B68     		ldr	r3, [r3]
 658 0012 9A42     		cmp	r2, r3
 659 0014 02D1     		bne	.L47
 660 0016 03B0     		add	sp, sp, #12
 661              		.cfi_remember_state
 662              		.cfi_def_cfa_offset 4
 663              		@ sp needed
 664 0018 5DF804FB 		ldr	pc, [sp], #4
 665              	.L47:
 666              		.cfi_restore_state
 667 001c FFF7FEFF 		bl	__stack_chk_fail
 668              	.LVL53:
 669              	.L49:
 670              		.align	2
 671              	.L48:
 672 0020 00000000 		.word	__stack_chk_guard
 673 0024 00000000 		.word	.LANCHOR7
 674              		.cfi_endproc
 675              	.LFE262:
 676              		.size	get_green, .-get_green
 677              		.section	.text.get_line_position,"ax",%progbits
 678              		.align	1
 679              		.p2align 4,,15
 680              		.global	get_line_position
 681              		.syntax unified
 682              		.thumb
 683              		.thumb_func
 684              		.fpu fpv4-sp-d16
ARM GAS  C:\Users\Valentin\AppData\Local\Temp\ccpjkBIQ.s 			page 13


 685              		.type	get_line_position, %function
 686              	get_line_position:
 687              	.LFB263:
 688              		.loc 1 96 0
 689              		.cfi_startproc
 690              		@ args = 0, pretend = 0, frame = 8
 691              		@ frame_needed = 0, uses_anonymous_args = 0
 692 0000 00B5     		push	{lr}
 693              		.cfi_def_cfa_offset 4
 694              		.cfi_offset 14, -4
 695 0002 074B     		ldr	r3, .L54
 696 0004 83B0     		sub	sp, sp, #12
 697              		.cfi_def_cfa_offset 16
 698              		.loc 1 96 0
 699 0006 1A68     		ldr	r2, [r3]
 700 0008 0192     		str	r2, [sp, #4]
 701              		.loc 1 98 0
 702 000a 019A     		ldr	r2, [sp, #4]
 703 000c 1B68     		ldr	r3, [r3]
 704 000e 9A42     		cmp	r2, r3
 705 0010 04D1     		bne	.L53
 706 0012 4FF4A070 		mov	r0, #320
 707 0016 03B0     		add	sp, sp, #12
 708              		.cfi_remember_state
 709              		.cfi_def_cfa_offset 4
 710              		@ sp needed
 711 0018 5DF804FB 		ldr	pc, [sp], #4
 712              	.L53:
 713              		.cfi_restore_state
 714 001c FFF7FEFF 		bl	__stack_chk_fail
 715              	.LVL54:
 716              	.L55:
 717              		.align	2
 718              	.L54:
 719 0020 00000000 		.word	__stack_chk_guard
 720              		.cfi_endproc
 721              	.LFE263:
 722              		.size	get_line_position, .-get_line_position
 723              		.section	.text.process_image_start,"ax",%progbits
 724              		.align	1
 725              		.p2align 4,,15
 726              		.global	process_image_start
 727              		.syntax unified
 728              		.thumb
 729              		.thumb_func
 730              		.fpu fpv4-sp-d16
 731              		.type	process_image_start, %function
 732              	process_image_start:
 733              	.LFB264:
 734              		.loc 1 100 0
 735              		.cfi_startproc
 736              		@ args = 0, pretend = 0, frame = 8
 737              		@ frame_needed = 0, uses_anonymous_args = 0
 738 0000 30B5     		push	{r4, r5, lr}
 739              		.cfi_def_cfa_offset 12
 740              		.cfi_offset 4, -12
 741              		.cfi_offset 5, -8
ARM GAS  C:\Users\Valentin\AppData\Local\Temp\ccpjkBIQ.s 			page 14


 742              		.cfi_offset 14, -4
 743 0002 0E4C     		ldr	r4, .L60
 744              		.loc 1 101 0
 745 0004 0E4B     		ldr	r3, .L60+4
 746              		.loc 1 100 0
 747 0006 2268     		ldr	r2, [r4]
 748              		.loc 1 101 0
 749 0008 0E48     		ldr	r0, .L60+8
 750              		.loc 1 100 0
 751 000a 85B0     		sub	sp, sp, #20
 752              		.cfi_def_cfa_offset 32
 753              		.loc 1 101 0
 754 000c 0025     		movs	r5, #0
 755              		.loc 1 100 0
 756 000e 0392     		str	r2, [sp, #12]
 757              		.loc 1 101 0
 758 0010 41F27811 		movw	r1, #4472
 759 0014 4122     		movs	r2, #65
 760 0016 0095     		str	r5, [sp]
 761 0018 FFF7FEFF 		bl	chThdCreateStatic
 762              	.LVL55:
 763              		.loc 1 102 0
 764 001c 0A4B     		ldr	r3, .L60+12
 765 001e 0095     		str	r5, [sp]
 766 0020 4122     		movs	r2, #65
 767 0022 0A48     		ldr	r0, .L60+16
 768 0024 4FF41E71 		mov	r1, #632
 769 0028 FFF7FEFF 		bl	chThdCreateStatic
 770              	.LVL56:
 771              		.loc 1 103 0
 772 002c 039A     		ldr	r2, [sp, #12]
 773 002e 2368     		ldr	r3, [r4]
 774 0030 9A42     		cmp	r2, r3
 775 0032 01D1     		bne	.L59
 776 0034 05B0     		add	sp, sp, #20
 777              		.cfi_remember_state
 778              		.cfi_def_cfa_offset 12
 779              		@ sp needed
 780 0036 30BD     		pop	{r4, r5, pc}
 781              	.L59:
 782              		.cfi_restore_state
 783 0038 FFF7FEFF 		bl	__stack_chk_fail
 784              	.LVL57:
 785              	.L61:
 786              		.align	2
 787              	.L60:
 788 003c 00000000 		.word	__stack_chk_guard
 789 0040 00000000 		.word	ProcessImage
 790 0044 00000000 		.word	waProcessImage
 791 0048 00000000 		.word	CaptureImage
 792 004c 00000000 		.word	.LANCHOR10
 793              		.cfi_endproc
 794              	.LFE264:
 795              		.size	process_image_start, .-process_image_start
 796              		.section	.text.get_main_color,"ax",%progbits
 797              		.align	1
 798              		.p2align 4,,15
ARM GAS  C:\Users\Valentin\AppData\Local\Temp\ccpjkBIQ.s 			page 15


 799              		.global	get_main_color
 800              		.syntax unified
 801              		.thumb
 802              		.thumb_func
 803              		.fpu fpv4-sp-d16
 804              		.type	get_main_color, %function
 805              	get_main_color:
 806              	.LFB265:
 807              		.loc 1 105 0
 808              		.cfi_startproc
 809              		@ args = 0, pretend = 0, frame = 8
 810              		@ frame_needed = 0, uses_anonymous_args = 0
 811 0000 30B5     		push	{r4, r5, lr}
 812              		.cfi_def_cfa_offset 12
 813              		.cfi_offset 4, -12
 814              		.cfi_offset 5, -8
 815              		.cfi_offset 14, -4
 816              	.LBB115:
 817              	.LBB116:
 818              		.loc 1 87 0
 819 0002 1D4B     		ldr	r3, .L75
 820              	.LBE116:
 821              	.LBE115:
 822              		.loc 1 105 0
 823 0004 1D49     		ldr	r1, .L75+4
 824              	.LBB118:
 825              	.LBB117:
 826              		.loc 1 87 0
 827 0006 1B68     		ldr	r3, [r3]
 828              	.LBE117:
 829              	.LBE118:
 830              		.loc 1 105 0
 831 0008 0868     		ldr	r0, [r1]
 832              	.LBB119:
 833              	.LBB120:
 834              		.loc 1 93 0
 835 000a 1D4C     		ldr	r4, .L75+8
 836              	.LBE120:
 837              	.LBE119:
 838              	.LBB122:
 839              	.LBB123:
 840              		.loc 1 90 0
 841 000c 1D4A     		ldr	r2, .L75+12
 842              	.LBE123:
 843              	.LBE122:
 844              	.LBB125:
 845              	.LBB121:
 846              		.loc 1 93 0
 847 000e 2468     		ldr	r4, [r4]
 848              	.LBE121:
 849              	.LBE125:
 850              	.LBB126:
 851              	.LBB124:
 852              		.loc 1 90 0
 853 0010 1268     		ldr	r2, [r2]
 854              	.LBE124:
 855              	.LBE126:
ARM GAS  C:\Users\Valentin\AppData\Local\Temp\ccpjkBIQ.s 			page 16


 856              		.loc 1 105 0
 857 0012 83B0     		sub	sp, sp, #12
 858              		.cfi_def_cfa_offset 24
 859              		.loc 1 105 0
 860 0014 0190     		str	r0, [sp, #4]
 861              	.LVL58:
 862              		.loc 1 111 0
 863 0016 03F10900 		add	r0, r3, #9
 864 001a 1228     		cmp	r0, #18
 865 001c 07D8     		bhi	.L63
 866              		.loc 1 111 0 is_stmt 0 discriminator 1
 867 001e 02F10900 		add	r0, r2, #9
 868 0022 1228     		cmp	r0, #18
 869 0024 03D8     		bhi	.L63
 870              		.loc 1 112 0 is_stmt 1
 871 0026 04F10900 		add	r0, r4, #9
 872 002a 1228     		cmp	r0, #18
 873 002c 20D9     		bls	.L68
 874              	.L63:
 875              		.loc 1 115 0
 876 002e 02F10A00 		add	r0, r2, #10
 877 0032 9842     		cmp	r0, r3
 878 0034 0ADA     		bge	.L65
 879              		.loc 1 115 0 is_stmt 0 discriminator 1
 880 0036 04F10A05 		add	r5, r4, #10
 881 003a 9D42     		cmp	r5, r3
 882 003c 06DA     		bge	.L65
 883              		.loc 1 116 0 is_stmt 1
 884 003e 0120     		movs	r0, #1
 885              	.L62:
 886              		.loc 1 127 0
 887 0040 019A     		ldr	r2, [sp, #4]
 888 0042 0B68     		ldr	r3, [r1]
 889 0044 9A42     		cmp	r2, r3
 890 0046 15D1     		bne	.L74
 891 0048 03B0     		add	sp, sp, #12
 892              		.cfi_remember_state
 893              		.cfi_def_cfa_offset 12
 894              		@ sp needed
 895 004a 30BD     		pop	{r4, r5, pc}
 896              	.L65:
 897              		.cfi_restore_state
 898              		.loc 1 118 0
 899 004c 0A33     		adds	r3, r3, #10
 900 004e 9342     		cmp	r3, r2
 901 0050 03DA     		bge	.L66
 902              		.loc 1 118 0 is_stmt 0 discriminator 1
 903 0052 04F10A05 		add	r5, r4, #10
 904 0056 9542     		cmp	r5, r2
 905 0058 08DB     		blt	.L70
 906              	.L66:
 907              		.loc 1 121 0 is_stmt 1
 908 005a A342     		cmp	r3, r4
 909 005c 04DA     		bge	.L71
 910              		.loc 1 122 0 discriminator 1
 911 005e A042     		cmp	r0, r4
 912 0060 B4BF     		ite	lt
ARM GAS  C:\Users\Valentin\AppData\Local\Temp\ccpjkBIQ.s 			page 17


 913 0062 0320     		movlt	r0, #3
 914 0064 0020     		movge	r0, #0
 915 0066 EBE7     		b	.L62
 916              	.L71:
 917              		.loc 1 125 0
 918 0068 0020     		movs	r0, #0
 919 006a E9E7     		b	.L62
 920              	.L70:
 921              		.loc 1 119 0
 922 006c 0220     		movs	r0, #2
 923 006e E7E7     		b	.L62
 924              	.L68:
 925              		.loc 1 113 0
 926 0070 0420     		movs	r0, #4
 927 0072 E5E7     		b	.L62
 928              	.L74:
 929              		.loc 1 127 0
 930 0074 FFF7FEFF 		bl	__stack_chk_fail
 931              	.LVL59:
 932              	.L76:
 933              		.align	2
 934              	.L75:
 935 0078 00000000 		.word	.LANCHOR5
 936 007c 00000000 		.word	__stack_chk_guard
 937 0080 00000000 		.word	.LANCHOR7
 938 0084 00000000 		.word	.LANCHOR6
 939              		.cfi_endproc
 940              	.LFE265:
 941              		.size	get_main_color, .-get_main_color
 942              		.section	.text.display_color_led,"ax",%progbits
 943              		.align	1
 944              		.p2align 4,,15
 945              		.global	display_color_led
 946              		.syntax unified
 947              		.thumb
 948              		.thumb_func
 949              		.fpu fpv4-sp-d16
 950              		.type	display_color_led, %function
 951              	display_color_led:
 952              	.LFB266:
 953              		.loc 1 129 0
 954              		.cfi_startproc
 955              		@ args = 0, pretend = 0, frame = 8
 956              		@ frame_needed = 0, uses_anonymous_args = 0
 957 0000 10B5     		push	{r4, lr}
 958              		.cfi_def_cfa_offset 8
 959              		.cfi_offset 4, -8
 960              		.cfi_offset 14, -4
 961 0002 194C     		ldr	r4, .L96
 962 0004 82B0     		sub	sp, sp, #8
 963              		.cfi_def_cfa_offset 16
 964              		.loc 1 129 0
 965 0006 2368     		ldr	r3, [r4]
 966 0008 0193     		str	r3, [sp, #4]
 967              		.loc 1 130 0
 968 000a FFF7FEFF 		bl	get_main_color
 969              	.LVL60:
ARM GAS  C:\Users\Valentin\AppData\Local\Temp\ccpjkBIQ.s 			page 18


 970              		.loc 1 131 0
 971 000e 0428     		cmp	r0, #4
 972 0010 1CD0     		beq	.L94
 973              		.loc 1 134 0
 974 0012 0128     		cmp	r0, #1
 975              		.loc 1 135 0
 976 0014 019A     		ldr	r2, [sp, #4]
 977              		.loc 1 134 0
 978 0016 0DD0     		beq	.L92
 979              		.loc 1 137 0
 980 0018 0228     		cmp	r0, #2
 981 001a 0BD0     		beq	.L92
 982              		.loc 1 140 0
 983 001c 0328     		cmp	r0, #3
 984              		.loc 1 141 0
 985 001e 2368     		ldr	r3, [r4]
 986              		.loc 1 140 0
 987 0020 0DD0     		beq	.L95
 988              		.loc 1 145 0
 989 0022 9A42     		cmp	r2, r3
 990 0024 08BF     		it	eq
 991 0026 0020     		moveq	r0, #0
 992              	.LVL61:
 993 0028 07D1     		bne	.L90
 994              	.L89:
 995              		.loc 1 147 0
 996 002a 02B0     		add	sp, sp, #8
 997              		.cfi_remember_state
 998              		.cfi_def_cfa_offset 8
 999              		@ sp needed
 1000 002c BDE81040 		pop	{r4, lr}
 1001              		.cfi_restore 14
 1002              		.cfi_restore 4
 1003              		.cfi_def_cfa_offset 0
 1004              		.loc 1 145 0
 1005 0030 FFF7FEBF 		b	set_rgb_all_leds
 1006              	.LVL62:
 1007              	.L92:
 1008              		.cfi_restore_state
 1009              		.loc 1 138 0
 1010 0034 2368     		ldr	r3, [r4]
 1011 0036 9A42     		cmp	r2, r3
 1012 0038 F7D0     		beq	.L89
 1013              	.LVL63:
 1014              	.L90:
 1015              		.loc 1 145 0
 1016 003a FFF7FEFF 		bl	__stack_chk_fail
 1017              	.LVL64:
 1018              	.L95:
 1019              		.loc 1 141 0
 1020 003e 9A42     		cmp	r2, r3
 1021 0040 FBD1     		bne	.L90
 1022              		.loc 1 147 0
 1023 0042 02B0     		add	sp, sp, #8
 1024              		.cfi_remember_state
 1025              		.cfi_def_cfa_offset 8
 1026              		@ sp needed
ARM GAS  C:\Users\Valentin\AppData\Local\Temp\ccpjkBIQ.s 			page 19


 1027 0044 BDE81040 		pop	{r4, lr}
 1028              		.cfi_restore 14
 1029              		.cfi_restore 4
 1030              		.cfi_def_cfa_offset 0
 1031              		.loc 1 145 0
 1032 0048 FFF7FEBF 		b	set_rgb_all_leds
 1033              	.LVL65:
 1034              	.L94:
 1035              		.cfi_restore_state
 1036              		.loc 1 132 0
 1037 004c 019A     		ldr	r2, [sp, #4]
 1038 004e 2368     		ldr	r3, [r4]
 1039 0050 9A42     		cmp	r2, r3
 1040 0052 F2D1     		bne	.L90
 1041 0054 0A23     		movs	r3, #10
 1042 0056 1A46     		mov	r2, r3
 1043 0058 1946     		mov	r1, r3
 1044 005a 0020     		movs	r0, #0
 1045              	.LVL66:
 1046              		.loc 1 147 0
 1047 005c 02B0     		add	sp, sp, #8
 1048              		.cfi_def_cfa_offset 8
 1049              		@ sp needed
 1050 005e BDE81040 		pop	{r4, lr}
 1051              		.cfi_restore 14
 1052              		.cfi_restore 4
 1053              		.cfi_def_cfa_offset 0
 1054              		.loc 1 132 0
 1055 0062 FFF7FEBF 		b	set_rgb_led
 1056              	.LVL67:
 1057              	.L97:
 1058 0066 00BF     		.align	2
 1059              	.L96:
 1060 0068 00000000 		.word	__stack_chk_guard
 1061              		.cfi_endproc
 1062              	.LFE266:
 1063              		.size	display_color_led, .-display_color_led
 1064              		.section	.text.stop_color_display,"ax",%progbits
 1065              		.align	1
 1066              		.p2align 4,,15
 1067              		.global	stop_color_display
 1068              		.syntax unified
 1069              		.thumb
 1070              		.thumb_func
 1071              		.fpu fpv4-sp-d16
 1072              		.type	stop_color_display, %function
 1073              	stop_color_display:
 1074              	.LFB267:
 1075              		.loc 1 149 0
 1076              		.cfi_startproc
 1077              		@ args = 0, pretend = 0, frame = 8
 1078              		@ frame_needed = 0, uses_anonymous_args = 0
 1079 0000 00B5     		push	{lr}
 1080              		.cfi_def_cfa_offset 4
 1081              		.cfi_offset 14, -4
 1082 0002 084B     		ldr	r3, .L103
 1083 0004 83B0     		sub	sp, sp, #12
ARM GAS  C:\Users\Valentin\AppData\Local\Temp\ccpjkBIQ.s 			page 20


 1084              		.cfi_def_cfa_offset 16
 1085              		.loc 1 149 0
 1086 0006 1A68     		ldr	r2, [r3]
 1087 0008 0192     		str	r2, [sp, #4]
 1088              		.loc 1 150 0
 1089 000a 019A     		ldr	r2, [sp, #4]
 1090 000c 1B68     		ldr	r3, [r3]
 1091 000e 9A42     		cmp	r2, r3
 1092 0010 05D1     		bne	.L102
 1093 0012 0020     		movs	r0, #0
 1094              		.loc 1 151 0
 1095 0014 03B0     		add	sp, sp, #12
 1096              		.cfi_remember_state
 1097              		.cfi_def_cfa_offset 4
 1098              		@ sp needed
 1099 0016 5DF804EB 		ldr	lr, [sp], #4
 1100              		.cfi_restore 14
 1101              		.cfi_def_cfa_offset 0
 1102              		.loc 1 150 0
 1103 001a FFF7FEBF 		b	set_rgb_all_leds
 1104              	.LVL68:
 1105              	.L102:
 1106              		.cfi_restore_state
 1107 001e FFF7FEFF 		bl	__stack_chk_fail
 1108              	.LVL69:
 1109              	.L104:
 1110 0022 00BF     		.align	2
 1111              	.L103:
 1112 0024 00000000 		.word	__stack_chk_guard
 1113              		.cfi_endproc
 1114              	.LFE267:
 1115              		.size	stop_color_display, .-stop_color_display
 1116              		.section	.bss.blue,"aw",%nobits
 1117              		.align	2
 1118              		.set	.LANCHOR6,. + 0
 1119              		.type	blue, %object
 1120              		.size	blue, 4
 1121              	blue:
 1122 0000 00000000 		.space	4
 1123              		.section	.bss.image_blue.11432,"aw",%nobits
 1124              		.align	2
 1125              		.set	.LANCHOR3,. + 0
 1126              		.type	image_blue.11432, %object
 1127              		.size	image_blue.11432, 640
 1128              	image_blue.11432:
 1129 0000 00000000 		.space	640
 1129      00000000 
 1129      00000000 
 1129      00000000 
 1129      00000000 
 1130              		.section	.bss.image_green.11433,"aw",%nobits
 1131              		.align	2
 1132              		.set	.LANCHOR4,. + 0
 1133              		.type	image_green.11433, %object
 1134              		.size	image_green.11433, 640
 1135              	image_green.11433:
 1136 0000 00000000 		.space	640
ARM GAS  C:\Users\Valentin\AppData\Local\Temp\ccpjkBIQ.s 			page 21


 1136      00000000 
 1136      00000000 
 1136      00000000 
 1136      00000000 
 1137              		.section	.bss.image_red.11431,"aw",%nobits
 1138              		.align	2
 1139              		.set	.LANCHOR2,. + 0
 1140              		.type	image_red.11431, %object
 1141              		.size	image_red.11431, 640
 1142              	image_red.11431:
 1143 0000 00000000 		.space	640
 1143      00000000 
 1143      00000000 
 1143      00000000 
 1143      00000000 
 1144              		.section	.bss.red,"aw",%nobits
 1145              		.align	2
 1146              		.set	.LANCHOR5,. + 0
 1147              		.type	red, %object
 1148              		.size	red, 4
 1149              	red:
 1150 0000 00000000 		.space	4
 1151              		.section	.bss.waCaptureImage,"aw",%nobits
 1152              		.align	3
 1153              		.set	.LANCHOR10,. + 0
 1154              		.type	waCaptureImage, %object
 1155              		.size	waCaptureImage, 632
 1156              	waCaptureImage:
 1157 0000 00000000 		.space	632
 1157      00000000 
 1157      00000000 
 1157      00000000 
 1157      00000000 
 1158              		.section	.bss.waProcessImage,"aw",%nobits
 1159              		.align	3
 1160              		.type	waProcessImage, %object
 1161              		.size	waProcessImage, 4472
 1162              	waProcessImage:
 1163 0000 00000000 		.space	4472
 1163      00000000 
 1163      00000000 
 1163      00000000 
 1163      00000000 
 1164              		.section	.data.green,"aw",%progbits
 1165              		.align	2
 1166              		.set	.LANCHOR7,. + 0
 1167              		.type	green, %object
 1168              		.size	green, 4
 1169              	green:
 1170 0000 6F000000 		.word	111
 1171              		.section	.data.image_ready_sem,"aw",%progbits
 1172              		.align	2
 1173              		.set	.LANCHOR1,. + 0
 1174              		.type	image_ready_sem, %object
 1175              		.size	image_ready_sem, 12
 1176              	image_ready_sem:
 1177 0000 00000000 		.word	image_ready_sem
ARM GAS  C:\Users\Valentin\AppData\Local\Temp\ccpjkBIQ.s 			page 22


 1178 0004 00000000 		.word	image_ready_sem
 1179 0008 00000000 		.word	0
 1180              		.section	.rodata.__FUNCTION__.11423,"a",%progbits
 1181              		.align	2
 1182              		.set	.LANCHOR8,. + 0
 1183              		.type	__FUNCTION__.11423, %object
 1184              		.size	__FUNCTION__.11423, 13
 1185              	__FUNCTION__.11423:
 1186 0000 43617074 		.ascii	"CaptureImage\000"
 1186      75726549 
 1186      6D616765 
 1186      00
 1187              		.section	.rodata.__FUNCTION__.11429,"a",%progbits
 1188              		.align	2
 1189              		.set	.LANCHOR0,. + 0
 1190              		.type	__FUNCTION__.11429, %object
 1191              		.size	__FUNCTION__.11429, 13
 1192              	__FUNCTION__.11429:
 1193 0000 50726F63 		.ascii	"ProcessImage\000"
 1193      65737349 
 1193      6D616765 
 1193      00
 1194              		.section	.rodata.__func__.7153,"a",%progbits
 1195              		.align	2
 1196              		.set	.LANCHOR9,. + 0
 1197              		.type	__func__.7153, %object
 1198              		.size	__func__.7153, 12
 1199              	__func__.7153:
 1200 0000 63685379 		.ascii	"chSysUnlock\000"
 1200      73556E6C 
 1200      6F636B00 
 1201              		.text
 1202              	.Letext0:
 1203              		.file 6 "c:\\users\\valentin\\desktop\\eclipse_e-puck2\\tools\\gcc-arm-none-eabi-7-2017-q4-major-w
 1204              		.file 7 "c:\\users\\valentin\\desktop\\eclipse_e-puck2\\tools\\gcc-arm-none-eabi-7-2017-q4-major-w
 1205              		.file 8 "c:\\users\\valentin\\desktop\\eclipse_e-puck2\\tools\\gcc-arm-none-eabi-7-2017-q4-major-w
 1206              		.file 9 "c:\\users\\valentin\\desktop\\microinformatique-tp\\autres\\e-puck2_main-processor\\chibi
 1207              		.file 10 "c:\\users\\valentin\\desktop\\microinformatique-tp\\autres\\e-puck2_main-processor\\chib
 1208              		.file 11 "c:\\users\\valentin\\desktop\\microinformatique-tp\\autres\\e-puck2_main-processor\\chib
 1209              		.file 12 "c:\\users\\valentin\\desktop\\microinformatique-tp\\autres\\e-puck2_main-processor\\chib
 1210              		.file 13 "c:\\users\\valentin\\desktop\\microinformatique-tp\\autres\\e-puck2_main-processor\\chib
 1211              		.file 14 "c:\\users\\valentin\\desktop\\microinformatique-tp\\autres\\e-puck2_main-processor\\chib
 1212              		.file 15 "c:\\users\\valentin\\desktop\\microinformatique-tp\\autres\\e-puck2_main-processor\\chib
 1213              		.file 16 "c:\\users\\valentin\\desktop\\microinformatique-tp\\autres\\e-puck2_main-processor\\chib
 1214              		.file 17 "c:\\users\\valentin\\desktop\\microinformatique-tp\\autres\\e-puck2_main-processor\\chib
 1215              		.file 18 "c:\\users\\valentin\\desktop\\microinformatique-tp\\autres\\e-puck2_main-processor\\chib
 1216              		.file 19 "c:\\users\\valentin\\desktop\\microinformatique-tp\\autres\\e-puck2_main-processor\\chib
 1217              		.file 20 "c:\\users\\valentin\\desktop\\microinformatique-tp\\autres\\e-puck2_main-processor\\chib
 1218              		.file 21 "c:\\users\\valentin\\desktop\\microinformatique-tp\\autres\\e-puck2_main-processor\\chib
 1219              		.file 22 "c:\\users\\valentin\\desktop\\microinformatique-tp\\autres\\e-puck2_main-processor\\chib
 1220              		.file 23 "c:\\users\\valentin\\desktop\\microinformatique-tp\\autres\\e-puck2_main-processor\\chib
 1221              		.file 24 "c:\\users\\valentin\\desktop\\microinformatique-tp\\autres\\e-puck2_main-processor\\chib
 1222              		.file 25 "c:\\users\\valentin\\desktop\\microinformatique-tp\\autres\\e-puck2_main-processor\\chib
 1223              		.file 26 "c:\\users\\valentin\\desktop\\microinformatique-tp\\autres\\e-puck2_main-processor\\chib
 1224              		.file 27 "c:\\users\\valentin\\desktop\\microinformatique-tp\\autres\\e-puck2_main-processor\\chib
 1225              		.file 28 "c:\\users\\valentin\\desktop\\microinformatique-tp\\autres\\e-puck2_main-processor\\chib
 1226              		.file 29 "c:\\users\\valentin\\desktop\\microinformatique-tp\\autres\\e-puck2_main-processor\\chib
ARM GAS  C:\Users\Valentin\AppData\Local\Temp\ccpjkBIQ.s 			page 23


 1227              		.file 30 "c:\\users\\valentin\\desktop\\microinformatique-tp\\autres\\e-puck2_main-processor\\chib
 1228              		.file 31 "c:\\users\\valentin\\desktop\\microinformatique-tp\\autres\\e-puck2_main-processor\\chib
 1229              		.file 32 "c:\\users\\valentin\\desktop\\microinformatique-tp\\autres\\e-puck2_main-processor\\chib
 1230              		.file 33 "c:\\users\\valentin\\desktop\\microinformatique-tp\\autres\\e-puck2_main-processor\\chib
 1231              		.file 34 "c:\\users\\valentin\\desktop\\microinformatique-tp\\autres\\e-puck2_main-processor\\chib
 1232              		.file 35 "c:\\users\\valentin\\desktop\\microinformatique-tp\\autres\\e-puck2_main-processor\\chib
 1233              		.file 36 "c:\\users\\valentin\\desktop\\microinformatique-tp\\autres\\e-puck2_main-processor\\chib
 1234              		.file 37 "c:\\users\\valentin\\desktop\\microinformatique-tp\\autres\\e-puck2_main-processor\\chib
 1235              		.file 38 "c:\\users\\valentin\\desktop\\microinformatique-tp\\autres\\e-puck2_main-processor\\chib
 1236              		.file 39 "c:\\users\\valentin\\desktop\\microinformatique-tp\\autres\\e-puck2_main-processor\\chib
 1237              		.file 40 "c:\\users\\valentin\\desktop\\microinformatique-tp\\autres\\e-puck2_main-processor\\chib
 1238              		.file 41 "c:\\users\\valentin\\desktop\\microinformatique-tp\\autres\\e-puck2_main-processor\\chib
 1239              		.file 42 "c:\\users\\valentin\\desktop\\microinformatique-tp\\autres\\e-puck2_main-processor\\chib
 1240              		.file 43 "c:\\users\\valentin\\desktop\\microinformatique-tp\\autres\\e-puck2_main-processor\\chib
 1241              		.file 44 "c:\\users\\valentin\\desktop\\microinformatique-tp\\autres\\e-puck2_main-processor\\chib
 1242              		.file 45 "c:\\users\\valentin\\desktop\\microinformatique-tp\\autres\\e-puck2_main-processor\\chib
 1243              		.file 46 "c:\\users\\valentin\\desktop\\microinformatique-tp\\autres\\e-puck2_main-processor\\chib
 1244              		.file 47 "c:\\users\\valentin\\desktop\\microinformatique-tp\\autres\\e-puck2_main-processor\\chib
 1245              		.file 48 "c:\\users\\valentin\\desktop\\microinformatique-tp\\autres\\e-puck2_main-processor\\chib
 1246              		.file 49 "c:\\users\\valentin\\desktop\\microinformatique-tp\\autres\\e-puck2_main-processor\\chib
 1247              		.file 50 "c:\\users\\valentin\\desktop\\microinformatique-tp\\autres\\e-puck2_main-processor\\chib
 1248              		.file 51 "c:\\users\\valentin\\desktop\\microinformatique-tp\\autres\\e-puck2_main-processor\\chib
 1249              		.file 52 "c:\\users\\valentin\\desktop\\microinformatique-tp\\autres\\e-puck2_main-processor\\chib
 1250              		.file 53 "c:\\users\\valentin\\desktop\\microinformatique-tp\\autres\\e-puck2_main-processor\\chib
 1251              		.file 54 "C:\\Users\\Valentin\\Desktop\\Microinformatique-TP\\autres\\e-puck2_main-processor/src/u
 1252              		.file 55 "c:\\users\\valentin\\desktop\\eclipse_e-puck2\\tools\\gcc-arm-none-eabi-7-2017-q4-major-
 1253              		.file 56 "c:\\users\\valentin\\desktop\\eclipse_e-puck2\\tools\\gcc-arm-none-eabi-7-2017-q4-major-
 1254              		.file 57 "c:\\users\\valentin\\desktop\\eclipse_e-puck2\\tools\\gcc-arm-none-eabi-7-2017-q4-major-
 1255              		.file 58 "C:\\Users\\Valentin\\Desktop\\Microinformatique-TP\\autres\\e-puck2_main-processor/src/m
 1256              		.file 59 "c:\\users\\valentin\\desktop\\eclipse_e-puck2\\tools\\gcc-arm-none-eabi-7-2017-q4-major-
 1257              		.file 60 "c:\\users\\valentin\\desktop\\eclipse_e-puck2\\tools\\gcc-arm-none-eabi-7-2017-q4-major-
 1258              		.file 61 "C:\\Users\\Valentin\\Desktop\\Microinformatique-TP\\autres\\e-puck2_main-processor/src/p
 1259              		.file 62 "c:\\users\\valentin\\desktop\\microinformatique-tp\\autres\\e-puck2_main-processor\\chib
 1260              		.file 63 "C:\\Users\\Valentin\\Desktop\\Microinformatique-TP\\autres\\e-puck2_main-processor/src/c
 1261              		.file 64 "C:\\Users\\Valentin\\Desktop\\Microinformatique-TP\\autres\\e-puck2_main-processor/src/c
 1262              		.file 65 "./main.h"
 1263              		.file 66 "./color.h"
 1264              		.file 67 "./actionUser.h"
 1265              		.file 68 "C:\\Users\\Valentin\\Desktop\\Microinformatique-TP\\autres\\e-puck2_main-processor/src/l
 1266              		.file 69 "c:\\users\\valentin\\desktop\\microinformatique-tp\\autres\\e-puck2_main-processor\\chib