ARM GAS  C:\Users\Valentin\AppData\Local\Temp\cciqgwhi.s 			page 1


   1              		.cpu cortex-m4
   2              		.eabi_attribute 27, 1
   3              		.eabi_attribute 28, 1
   4              		.eabi_attribute 20, 1
   5              		.eabi_attribute 21, 1
   6              		.eabi_attribute 23, 3
   7              		.eabi_attribute 24, 1
   8              		.eabi_attribute 25, 1
   9              		.eabi_attribute 26, 1
  10              		.eabi_attribute 30, 2
  11              		.eabi_attribute 34, 1
  12              		.eabi_attribute 18, 4
  13              		.file	"leds.c"
  14              		.text
  15              	.Ltext0:
  16              		.cfi_sections	.debug_frame
  17              		.section	.text.set_led,"ax",%progbits
  18              		.align	1
  19              		.p2align 4,,15
  20              		.global	set_led
  21              		.syntax unified
  22              		.thumb
  23              		.thumb_func
  24              		.fpu fpv4-sp-d16
  25              		.type	set_led, %function
  26              	set_led:
  27              	.LFB256:
  28              		.file 1 "../e-puck2_main-processor/src/leds.c"
  29              		.loc 1 8 0
  30              		.cfi_startproc
  31              		@ args = 0, pretend = 0, frame = 8
  32              		@ frame_needed = 0, uses_anonymous_args = 0
  33              	.LVL0:
  34 0000 70B5     		push	{r4, r5, r6, lr}
  35              		.cfi_def_cfa_offset 16
  36              		.cfi_offset 4, -16
  37              		.cfi_offset 5, -12
  38              		.cfi_offset 6, -8
  39              		.cfi_offset 14, -4
  40 0002 294D     		ldr	r5, .L24
  41 0004 82B0     		sub	sp, sp, #8
  42              		.cfi_def_cfa_offset 24
  43              		.loc 1 8 0
  44 0006 2B68     		ldr	r3, [r5]
  45 0008 0193     		str	r3, [sp, #4]
  46 000a 0E46     		mov	r6, r1
  47              		.loc 1 9 0
  48 000c 0328     		cmp	r0, #3
  49 000e 41D8     		bhi	.L18
  50 0010 DFE800F0 		tbb	[pc, r0]
  51              	.L4:
  52 0014 1A       		.byte	(.L3-.L4)/2
  53 0015 12       		.byte	(.L5-.L4)/2
  54 0016 0A       		.byte	(.L6-.L4)/2
  55 0017 02       		.byte	(.L7-.L4)/2
  56              		.p2align 1
  57              	.L7:
ARM GAS  C:\Users\Valentin\AppData\Local\Temp\cciqgwhi.s 			page 2


  58              		.loc 1 32 0
  59 0018 0129     		cmp	r1, #1
  60 001a 22D9     		bls	.L15
  61              		.loc 1 33 0
  62 001c 234A     		ldr	r2, .L24+4
  63 001e 5369     		ldr	r3, [r2, #20]
  64 0020 83F40063 		eor	r3, r3, #2048
  65 0024 5361     		str	r3, [r2, #20]
  66 0026 16E0     		b	.L1
  67              	.L6:
  68              		.loc 1 25 0
  69 0028 0129     		cmp	r1, #1
  70 002a 26D9     		bls	.L13
  71              		.loc 1 26 0
  72 002c 1F4A     		ldr	r2, .L24+4
  73 002e 5369     		ldr	r3, [r2, #20]
  74 0030 83F48063 		eor	r3, r3, #1024
  75 0034 5361     		str	r3, [r2, #20]
  76 0036 0EE0     		b	.L1
  77              	.L5:
  78              		.loc 1 18 0
  79 0038 0129     		cmp	r1, #1
  80 003a 18D9     		bls	.L11
  81              		.loc 1 19 0
  82 003c 1B4A     		ldr	r2, .L24+4
  83 003e 5369     		ldr	r3, [r2, #20]
  84 0040 83F04003 		eor	r3, r3, #64
  85 0044 5361     		str	r3, [r2, #20]
  86 0046 06E0     		b	.L1
  87              	.L3:
  88              		.loc 1 11 0
  89 0048 0129     		cmp	r1, #1
  90 004a 1CD9     		bls	.L8
  91              		.loc 1 12 0
  92 004c 174A     		ldr	r2, .L24+4
  93 004e 5369     		ldr	r3, [r2, #20]
  94 0050 83F02003 		eor	r3, r3, #32
  95 0054 5361     		str	r3, [r2, #20]
  96              	.LVL1:
  97              	.L1:
  98              		.loc 1 43 0
  99 0056 019A     		ldr	r2, [sp, #4]
 100 0058 2B68     		ldr	r3, [r5]
 101 005a 9A42     		cmp	r2, r3
 102 005c 18D1     		bne	.L23
 103 005e 02B0     		add	sp, sp, #8
 104              		.cfi_remember_state
 105              		.cfi_def_cfa_offset 16
 106              		@ sp needed
 107 0060 70BD     		pop	{r4, r5, r6, pc}
 108              	.LVL2:
 109              	.L15:
 110              		.cfi_restore_state
 111              		.loc 1 35 0
 112 0062 124B     		ldr	r3, .L24+4
 113 0064 4FF40062 		mov	r2, #2048
 114 0068 29B1     		cbz	r1, .L16
ARM GAS  C:\Users\Valentin\AppData\Local\Temp\cciqgwhi.s 			page 3


 115              	.L21:
 116              		.loc 1 35 0 is_stmt 0 discriminator 1
 117 006a 5A83     		strh	r2, [r3, #26]	@ movhi
 118 006c F3E7     		b	.L1
 119              	.L11:
 120              		.loc 1 21 0 is_stmt 1
 121 006e 0F4B     		ldr	r3, .L24+4
 122 0070 4022     		movs	r2, #64
 123 0072 0029     		cmp	r1, #0
 124 0074 F9D1     		bne	.L21
 125              	.L16:
 126              		.loc 1 35 0 discriminator 2
 127 0076 1A83     		strh	r2, [r3, #24]	@ movhi
 128 0078 EDE7     		b	.L1
 129              	.L13:
 130              		.loc 1 28 0
 131 007a 0C4B     		ldr	r3, .L24+4
 132 007c 4FF48062 		mov	r2, #1024
 133 0080 0029     		cmp	r1, #0
 134 0082 F8D0     		beq	.L16
 135 0084 F1E7     		b	.L21
 136              	.L8:
 137              		.loc 1 14 0
 138 0086 094B     		ldr	r3, .L24+4
 139 0088 2022     		movs	r2, #32
 140 008a 0029     		cmp	r1, #0
 141 008c F3D0     		beq	.L16
 142 008e ECE7     		b	.L21
 143              	.LVL3:
 144              	.L23:
 145              		.loc 1 43 0
 146 0090 FFF7FEFF 		bl	__stack_chk_fail
 147              	.LVL4:
 148              	.L18:
 149              	.LBB5:
 150              		.loc 1 39 0
 151 0094 0024     		movs	r4, #0
 152              	.LVL5:
 153              	.L2:
 154              		.loc 1 40 0 discriminator 3
 155 0096 E0B2     		uxtb	r0, r4
 156 0098 3146     		mov	r1, r6
 157              		.loc 1 39 0 discriminator 3
 158 009a 0134     		adds	r4, r4, #1
 159              	.LVL6:
 160              		.loc 1 40 0 discriminator 3
 161 009c FFF7FEFF 		bl	set_led
 162              	.LVL7:
 163              		.loc 1 39 0 discriminator 3
 164 00a0 042C     		cmp	r4, #4
 165 00a2 F8D1     		bne	.L2
 166 00a4 D7E7     		b	.L1
 167              	.L25:
 168 00a6 00BF     		.align	2
 169              	.L24:
 170 00a8 00000000 		.word	__stack_chk_guard
 171 00ac 000C0240 		.word	1073875968
ARM GAS  C:\Users\Valentin\AppData\Local\Temp\cciqgwhi.s 			page 4


 172              	.LBE5:
 173              		.cfi_endproc
 174              	.LFE256:
 175              		.size	set_led, .-set_led
 176              		.section	.text.set_rgb_led,"ax",%progbits
 177              		.align	1
 178              		.p2align 4,,15
 179              		.global	set_rgb_led
 180              		.syntax unified
 181              		.thumb
 182              		.thumb_func
 183              		.fpu fpv4-sp-d16
 184              		.type	set_rgb_led, %function
 185              	set_rgb_led:
 186              	.LFB257:
 187              		.loc 1 45 0
 188              		.cfi_startproc
 189              		@ args = 0, pretend = 0, frame = 8
 190              		@ frame_needed = 0, uses_anonymous_args = 0
 191              	.LVL8:
 192 0000 70B5     		push	{r4, r5, r6, lr}
 193              		.cfi_def_cfa_offset 16
 194              		.cfi_offset 4, -16
 195              		.cfi_offset 5, -12
 196              		.cfi_offset 6, -8
 197              		.cfi_offset 14, -4
 198 0002 094D     		ldr	r5, .L30
 199              		.loc 1 46 0
 200 0004 094E     		ldr	r6, .L30+4
 201              		.loc 1 45 0
 202 0006 2C68     		ldr	r4, [r5]
 203 0008 82B0     		sub	sp, sp, #8
 204              		.cfi_def_cfa_offset 24
 205              		.loc 1 46 0
 206 000a 00EB4000 		add	r0, r0, r0, lsl #1
 207              	.LVL9:
 208              		.loc 1 45 0
 209 000e 0194     		str	r4, [sp, #4]
 210              		.loc 1 46 0
 211 0010 3154     		strb	r1, [r6, r0]
 212 0012 3418     		adds	r4, r6, r0
 213              		.loc 1 49 0
 214 0014 0198     		ldr	r0, [sp, #4]
 215 0016 2968     		ldr	r1, [r5]
 216              	.LVL10:
 217              		.loc 1 47 0
 218 0018 6270     		strb	r2, [r4, #1]
 219              		.loc 1 49 0
 220 001a 8842     		cmp	r0, r1
 221              		.loc 1 48 0
 222 001c A370     		strb	r3, [r4, #2]
 223              		.loc 1 49 0
 224 001e 01D1     		bne	.L29
 225 0020 02B0     		add	sp, sp, #8
 226              		.cfi_remember_state
 227              		.cfi_def_cfa_offset 16
 228              		@ sp needed
ARM GAS  C:\Users\Valentin\AppData\Local\Temp\cciqgwhi.s 			page 5


 229 0022 70BD     		pop	{r4, r5, r6, pc}
 230              	.LVL11:
 231              	.L29:
 232              		.cfi_restore_state
 233 0024 FFF7FEFF 		bl	__stack_chk_fail
 234              	.LVL12:
 235              	.L31:
 236              		.align	2
 237              	.L30:
 238 0028 00000000 		.word	__stack_chk_guard
 239 002c 00000000 		.word	.LANCHOR0
 240              		.cfi_endproc
 241              	.LFE257:
 242              		.size	set_rgb_led, .-set_rgb_led
 243              		.section	.text.toggle_rgb_led,"ax",%progbits
 244              		.align	1
 245              		.p2align 4,,15
 246              		.global	toggle_rgb_led
 247              		.syntax unified
 248              		.thumb
 249              		.thumb_func
 250              		.fpu fpv4-sp-d16
 251              		.type	toggle_rgb_led, %function
 252              	toggle_rgb_led:
 253              	.LFB258:
 254              		.loc 1 51 0
 255              		.cfi_startproc
 256              		@ args = 0, pretend = 0, frame = 8
 257              		@ frame_needed = 0, uses_anonymous_args = 0
 258              	.LVL13:
 259 0000 F0B5     		push	{r4, r5, r6, r7, lr}
 260              		.cfi_def_cfa_offset 20
 261              		.cfi_offset 4, -20
 262              		.cfi_offset 5, -16
 263              		.cfi_offset 6, -12
 264              		.cfi_offset 7, -8
 265              		.cfi_offset 14, -4
 266 0002 0F4D     		ldr	r5, .L41
 267 0004 83B0     		sub	sp, sp, #12
 268              		.cfi_def_cfa_offset 32
 269              		.loc 1 51 0
 270 0006 2B68     		ldr	r3, [r5]
 271 0008 0193     		str	r3, [sp, #4]
 272 000a 0446     		mov	r4, r0
 273 000c 0E46     		mov	r6, r1
 274 000e 1746     		mov	r7, r2
 275              	.LBB6:
 276              		.loc 1 52 0
 277 0010 FFF7FEFF 		bl	spi_rgb_setting_is_enabled
 278              	.LVL14:
 279 0014 78B1     		cbz	r0, .L38
 280              	.L33:
 281              	.LBE6:
 282              		.loc 1 55 0
 283 0016 0B48     		ldr	r0, .L41+4
 284 0018 04EB4404 		add	r4, r4, r4, lsl #1
 285 001c 2044     		add	r0, r0, r4
ARM GAS  C:\Users\Valentin\AppData\Local\Temp\cciqgwhi.s 			page 6


 286 001e 835D     		ldrb	r3, [r0, r6]	@ zero_extendqisi2
 287 0020 33B9     		cbnz	r3, .L39
 288              		.loc 1 58 0
 289 0022 8755     		strb	r7, [r0, r6]
 290              	.L32:
 291              		.loc 1 60 0
 292 0024 019A     		ldr	r2, [sp, #4]
 293 0026 2B68     		ldr	r3, [r5]
 294 0028 9A42     		cmp	r2, r3
 295 002a 07D1     		bne	.L40
 296 002c 03B0     		add	sp, sp, #12
 297              		.cfi_remember_state
 298              		.cfi_def_cfa_offset 20
 299              		@ sp needed
 300 002e F0BD     		pop	{r4, r5, r6, r7, pc}
 301              	.L39:
 302              		.cfi_restore_state
 303              		.loc 1 56 0
 304 0030 0023     		movs	r3, #0
 305 0032 8355     		strb	r3, [r0, r6]
 306 0034 F6E7     		b	.L32
 307              	.L38:
 308              	.LBB8:
 309              	.LBB7:
 310              		.loc 1 53 0
 311 0036 FFF7FEFF 		bl	spi_rgb_setting_enable
 312              	.LVL15:
 313 003a ECE7     		b	.L33
 314              	.L40:
 315              	.LBE7:
 316              	.LBE8:
 317              		.loc 1 60 0
 318 003c FFF7FEFF 		bl	__stack_chk_fail
 319              	.LVL16:
 320              	.L42:
 321              		.align	2
 322              	.L41:
 323 0040 00000000 		.word	__stack_chk_guard
 324 0044 00000000 		.word	.LANCHOR0
 325              		.cfi_endproc
 326              	.LFE258:
 327              		.size	toggle_rgb_led, .-toggle_rgb_led
 328              		.section	.text.set_body_led,"ax",%progbits
 329              		.align	1
 330              		.p2align 4,,15
 331              		.global	set_body_led
 332              		.syntax unified
 333              		.thumb
 334              		.thumb_func
 335              		.fpu fpv4-sp-d16
 336              		.type	set_body_led, %function
 337              	set_body_led:
 338              	.LFB259:
 339              		.loc 1 69 0
 340              		.cfi_startproc
 341              		@ args = 0, pretend = 0, frame = 8
 342              		@ frame_needed = 0, uses_anonymous_args = 0
ARM GAS  C:\Users\Valentin\AppData\Local\Temp\cciqgwhi.s 			page 7


 343              	.LVL17:
 344 0000 00B5     		push	{lr}
 345              		.cfi_def_cfa_offset 4
 346              		.cfi_offset 14, -4
 347 0002 0D4B     		ldr	r3, .L51
 348 0004 83B0     		sub	sp, sp, #12
 349              		.cfi_def_cfa_offset 16
 350              		.loc 1 69 0
 351 0006 1A68     		ldr	r2, [r3]
 352 0008 0192     		str	r2, [sp, #4]
 353              		.loc 1 70 0
 354 000a 0128     		cmp	r0, #1
 355 000c 0BD9     		bls	.L44
 356              		.loc 1 71 0
 357 000e 0B49     		ldr	r1, .L51+4
 358 0010 4A69     		ldr	r2, [r1, #20]
 359 0012 82F00402 		eor	r2, r2, #4
 360 0016 4A61     		str	r2, [r1, #20]
 361              	.L43:
 362              		.loc 1 74 0
 363 0018 019A     		ldr	r2, [sp, #4]
 364 001a 1B68     		ldr	r3, [r3]
 365 001c 9A42     		cmp	r2, r3
 366 001e 09D1     		bne	.L49
 367 0020 03B0     		add	sp, sp, #12
 368              		.cfi_remember_state
 369              		.cfi_def_cfa_offset 4
 370              		@ sp needed
 371 0022 5DF804FB 		ldr	pc, [sp], #4
 372              	.L44:
 373              		.cfi_restore_state
 374              		.loc 1 73 0
 375 0026 054A     		ldr	r2, .L51+4
 376 0028 0421     		movs	r1, #4
 377 002a 08B9     		cbnz	r0, .L50
 378              		.loc 1 73 0 is_stmt 0 discriminator 2
 379 002c 5183     		strh	r1, [r2, #26]	@ movhi
 380              		.loc 1 74 0 is_stmt 1 discriminator 2
 381 002e F3E7     		b	.L43
 382              	.L50:
 383              		.loc 1 73 0 discriminator 1
 384 0030 1183     		strh	r1, [r2, #24]	@ movhi
 385 0032 F1E7     		b	.L43
 386              	.L49:
 387              		.loc 1 74 0
 388 0034 FFF7FEFF 		bl	__stack_chk_fail
 389              	.LVL18:
 390              	.L52:
 391              		.align	2
 392              	.L51:
 393 0038 00000000 		.word	__stack_chk_guard
 394 003c 00040240 		.word	1073873920
 395              		.cfi_endproc
 396              	.LFE259:
 397              		.size	set_body_led, .-set_body_led
 398              		.section	.text.set_front_led,"ax",%progbits
 399              		.align	1
ARM GAS  C:\Users\Valentin\AppData\Local\Temp\cciqgwhi.s 			page 8


 400              		.p2align 4,,15
 401              		.global	set_front_led
 402              		.syntax unified
 403              		.thumb
 404              		.thumb_func
 405              		.fpu fpv4-sp-d16
 406              		.type	set_front_led, %function
 407              	set_front_led:
 408              	.LFB260:
 409              		.loc 1 83 0
 410              		.cfi_startproc
 411              		@ args = 0, pretend = 0, frame = 8
 412              		@ frame_needed = 0, uses_anonymous_args = 0
 413              	.LVL19:
 414 0000 00B5     		push	{lr}
 415              		.cfi_def_cfa_offset 4
 416              		.cfi_offset 14, -4
 417 0002 0E4B     		ldr	r3, .L61
 418 0004 83B0     		sub	sp, sp, #12
 419              		.cfi_def_cfa_offset 16
 420              		.loc 1 83 0
 421 0006 1A68     		ldr	r2, [r3]
 422 0008 0192     		str	r2, [sp, #4]
 423              		.loc 1 84 0
 424 000a 0128     		cmp	r0, #1
 425 000c 0BD9     		bls	.L54
 426              		.loc 1 85 0
 427 000e 0C49     		ldr	r1, .L61+4
 428 0010 4A69     		ldr	r2, [r1, #20]
 429 0012 82F48042 		eor	r2, r2, #16384
 430 0016 4A61     		str	r2, [r1, #20]
 431              	.L53:
 432              		.loc 1 88 0
 433 0018 019A     		ldr	r2, [sp, #4]
 434 001a 1B68     		ldr	r3, [r3]
 435 001c 9A42     		cmp	r2, r3
 436 001e 0AD1     		bne	.L59
 437 0020 03B0     		add	sp, sp, #12
 438              		.cfi_remember_state
 439              		.cfi_def_cfa_offset 4
 440              		@ sp needed
 441 0022 5DF804FB 		ldr	pc, [sp], #4
 442              	.L54:
 443              		.cfi_restore_state
 444              		.loc 1 87 0
 445 0026 064A     		ldr	r2, .L61+4
 446 0028 4FF48041 		mov	r1, #16384
 447 002c 08B9     		cbnz	r0, .L60
 448              		.loc 1 87 0 is_stmt 0 discriminator 2
 449 002e 5183     		strh	r1, [r2, #26]	@ movhi
 450              		.loc 1 88 0 is_stmt 1 discriminator 2
 451 0030 F2E7     		b	.L53
 452              	.L60:
 453              		.loc 1 87 0 discriminator 1
 454 0032 1183     		strh	r1, [r2, #24]	@ movhi
 455 0034 F0E7     		b	.L53
 456              	.L59:
ARM GAS  C:\Users\Valentin\AppData\Local\Temp\cciqgwhi.s 			page 9


 457              		.loc 1 88 0
 458 0036 FFF7FEFF 		bl	__stack_chk_fail
 459              	.LVL20:
 460              	.L62:
 461 003a 00BF     		.align	2
 462              	.L61:
 463 003c 00000000 		.word	__stack_chk_guard
 464 0040 000C0240 		.word	1073875968
 465              		.cfi_endproc
 466              	.LFE260:
 467              		.size	set_front_led, .-set_front_led
 468              		.section	.text.clear_leds,"ax",%progbits
 469              		.align	1
 470              		.p2align 4,,15
 471              		.global	clear_leds
 472              		.syntax unified
 473              		.thumb
 474              		.thumb_func
 475              		.fpu fpv4-sp-d16
 476              		.type	clear_leds, %function
 477              	clear_leds:
 478              	.LFB261:
 479              		.loc 1 91 0
 480              		.cfi_startproc
 481              		@ args = 0, pretend = 0, frame = 8
 482              		@ frame_needed = 0, uses_anonymous_args = 0
 483 0000 F0B5     		push	{r4, r5, r6, r7, lr}
 484              		.cfi_def_cfa_offset 20
 485              		.cfi_offset 4, -20
 486              		.cfi_offset 5, -16
 487              		.cfi_offset 6, -12
 488              		.cfi_offset 7, -8
 489              		.cfi_offset 14, -4
 490 0002 0D4F     		ldr	r7, .L69
 491 0004 0D4C     		ldr	r4, .L69+4
 492 0006 3B68     		ldr	r3, [r7]
 493 0008 83B0     		sub	sp, sp, #12
 494              		.cfi_def_cfa_offset 32
 495              	.LBB9:
 496              		.loc 1 92 0
 497 000a 0025     		movs	r5, #0
 498              	.LBE9:
 499              		.loc 1 91 0
 500 000c 0193     		str	r3, [sp, #4]
 501              	.LVL21:
 502              	.LBB12:
 503              		.loc 1 93 0
 504 000e 2E46     		mov	r6, r5
 505              	.LVL22:
 506              	.L64:
 507              		.loc 1 93 0 is_stmt 0 discriminator 3
 508 0010 E8B2     		uxtb	r0, r5
 509 0012 0021     		movs	r1, #0
 510              		.loc 1 92 0 is_stmt 1 discriminator 3
 511 0014 0135     		adds	r5, r5, #1
 512              	.LVL23:
 513              		.loc 1 93 0 discriminator 3
ARM GAS  C:\Users\Valentin\AppData\Local\Temp\cciqgwhi.s 			page 10


 514 0016 FFF7FEFF 		bl	set_led
 515              	.LVL24:
 516              		.loc 1 92 0 discriminator 3
 517 001a 042D     		cmp	r5, #4
 518              	.LBB10:
 519              	.LBB11:
 520              		.loc 1 46 0 discriminator 3
 521 001c 2670     		strb	r6, [r4]
 522              		.loc 1 47 0 discriminator 3
 523 001e 6670     		strb	r6, [r4, #1]
 524              		.loc 1 48 0 discriminator 3
 525 0020 A670     		strb	r6, [r4, #2]
 526              	.LVL25:
 527 0022 04F10304 		add	r4, r4, #3
 528              	.LBE11:
 529              	.LBE10:
 530              		.loc 1 92 0 discriminator 3
 531 0026 F3D1     		bne	.L64
 532              	.LBE12:
 533              		.loc 1 96 0
 534 0028 019A     		ldr	r2, [sp, #4]
 535 002a 3B68     		ldr	r3, [r7]
 536 002c 9A42     		cmp	r2, r3
 537 002e 01D1     		bne	.L68
 538 0030 03B0     		add	sp, sp, #12
 539              		.cfi_remember_state
 540              		.cfi_def_cfa_offset 20
 541              		@ sp needed
 542 0032 F0BD     		pop	{r4, r5, r6, r7, pc}
 543              	.LVL26:
 544              	.L68:
 545              		.cfi_restore_state
 546 0034 FFF7FEFF 		bl	__stack_chk_fail
 547              	.LVL27:
 548              	.L70:
 549              		.align	2
 550              	.L69:
 551 0038 00000000 		.word	__stack_chk_guard
 552 003c 00000000 		.word	.LANCHOR0
 553              		.cfi_endproc
 554              	.LFE261:
 555              		.size	clear_leds, .-clear_leds
 556              		.section	.text.get_all_rgb_state,"ax",%progbits
 557              		.align	1
 558              		.p2align 4,,15
 559              		.global	get_all_rgb_state
 560              		.syntax unified
 561              		.thumb
 562              		.thumb_func
 563              		.fpu fpv4-sp-d16
 564              		.type	get_all_rgb_state, %function
 565              	get_all_rgb_state:
 566              	.LFB262:
 567              		.loc 1 98 0
 568              		.cfi_startproc
 569              		@ args = 0, pretend = 0, frame = 8
 570              		@ frame_needed = 0, uses_anonymous_args = 0
ARM GAS  C:\Users\Valentin\AppData\Local\Temp\cciqgwhi.s 			page 11


 571              	.LVL28:
 572 0000 30B5     		push	{r4, r5, lr}
 573              		.cfi_def_cfa_offset 12
 574              		.cfi_offset 4, -12
 575              		.cfi_offset 5, -8
 576              		.cfi_offset 14, -4
 577              		.loc 1 99 0
 578 0002 094B     		ldr	r3, .L75
 579              		.loc 1 98 0
 580 0004 094D     		ldr	r5, .L75+4
 581 0006 0446     		mov	r4, r0
 582              		.loc 1 99 0
 583 0008 07CB     		ldmia	r3!, {r0, r1, r2}
 584              	.LVL29:
 585              		.loc 1 98 0
 586 000a 83B0     		sub	sp, sp, #12
 587              		.cfi_def_cfa_offset 24
 588              		.loc 1 98 0
 589 000c 2B68     		ldr	r3, [r5]
 590 000e 0193     		str	r3, [sp, #4]
 591              		.loc 1 99 0
 592 0010 2060     		str	r0, [r4]	@ unaligned
 593              		.loc 1 100 0
 594 0012 0198     		ldr	r0, [sp, #4]
 595 0014 2B68     		ldr	r3, [r5]
 596              		.loc 1 99 0
 597 0016 6160     		str	r1, [r4, #4]	@ unaligned
 598              		.loc 1 100 0
 599 0018 9842     		cmp	r0, r3
 600              		.loc 1 99 0
 601 001a A260     		str	r2, [r4, #8]	@ unaligned
 602              		.loc 1 100 0
 603 001c 01D1     		bne	.L74
 604 001e 03B0     		add	sp, sp, #12
 605              		.cfi_remember_state
 606              		.cfi_def_cfa_offset 12
 607              		@ sp needed
 608 0020 30BD     		pop	{r4, r5, pc}
 609              	.LVL30:
 610              	.L74:
 611              		.cfi_restore_state
 612 0022 FFF7FEFF 		bl	__stack_chk_fail
 613              	.LVL31:
 614              	.L76:
 615 0026 00BF     		.align	2
 616              	.L75:
 617 0028 00000000 		.word	.LANCHOR0
 618 002c 00000000 		.word	__stack_chk_guard
 619              		.cfi_endproc
 620              	.LFE262:
 621              		.size	get_all_rgb_state, .-get_all_rgb_state
 622              		.section	.bss.rgb_led,"aw",%nobits
 623              		.align	2
 624              		.set	.LANCHOR0,. + 0
 625              		.type	rgb_led, %object
 626              		.size	rgb_led, 12
 627              	rgb_led:
ARM GAS  C:\Users\Valentin\AppData\Local\Temp\cciqgwhi.s 			page 12


 628 0000 00000000 		.space	12
 628      00000000 
 628      00000000 
 629              		.text
 630              	.Letext0:
 631              		.file 2 "c:\\users\\valentin\\desktop\\eclipse_e-puck2\\tools\\gcc-arm-none-eabi-7-2017-q4-major-w
 632              		.file 3 "c:\\users\\valentin\\desktop\\eclipse_e-puck2\\tools\\gcc-arm-none-eabi-7-2017-q4-major-w
 633              		.file 4 "c:\\users\\valentin\\desktop\\eclipse_e-puck2\\tools\\gcc-arm-none-eabi-7-2017-q4-major-w
 634              		.file 5 "../e-puck2_main-processor/ChibiOS//os/rt/ports/ARMCMx/compilers/GCC/chtypes.h"
 635              		.file 6 "../e-puck2_main-processor/ChibiOS//os/rt/include/chsystypes.h"
 636              		.file 7 "../e-puck2_main-processor/ChibiOS//os/rt/include/chschd.h"
 637              		.file 8 "../e-puck2_main-processor/ChibiOS//os/ext/CMSIS/include/core_cm4.h"
 638              		.file 9 "../e-puck2_main-processor/ChibiOS//os/ext/CMSIS/ST/system_stm32f4xx.h"
 639              		.file 10 "../e-puck2_main-processor/ChibiOS//os/ext/CMSIS/ST/stm32f407xx.h"
 640              		.file 11 "../e-puck2_main-processor/ChibiOS//os/rt/ports/ARMCMx/chcore.h"
 641              		.file 12 "../e-puck2_main-processor/ChibiOS//os/rt/ports/ARMCMx/chcore_v7m.h"
 642              		.file 13 "../e-puck2_main-processor/ChibiOS//os/rt/include/chdebug.h"
 643              		.file 14 "../e-puck2_main-processor/ChibiOS//os/rt/include/chtm.h"
 644              		.file 15 "../e-puck2_main-processor/ChibiOS//os/rt/include/chstats.h"
 645              		.file 16 "../e-puck2_main-processor/ChibiOS//os/rt/include/chsem.h"
 646              		.file 17 "../e-puck2_main-processor/ChibiOS//os/rt/include/chmtx.h"
 647              		.file 18 "../e-puck2_main-processor/ChibiOS//os/rt/include/chregistry.h"
 648              		.file 19 "../e-puck2_main-processor/ChibiOS//os/rt/include/chevents.h"
 649              		.file 20 "../e-puck2_main-processor/ChibiOS//os/rt/include/chqueues.h"
 650              		.file 21 "../e-puck2_main-processor/ChibiOS//os/hal/ports/STM32/STM32F4xx/stm32_dma.h"
 651              		.file 22 "../e-puck2_main-processor/ChibiOS//os/hal/include/hal_ioblock.h"
 652              		.file 23 "../e-puck2_main-processor/ChibiOS//os/hal/ports/STM32/LLD/GPIOv2/pal_lld.h"
 653              		.file 24 "../e-puck2_main-processor/ChibiOS//os/hal/include/adc.h"
 654              		.file 25 "../e-puck2_main-processor/ChibiOS//os/hal/ports/STM32/STM32F4xx/adc_lld.h"
 655              		.file 26 "../e-puck2_main-processor/ChibiOS//os/hal/include/can.h"
 656              		.file 27 "../e-puck2_main-processor/ChibiOS//os/hal/ports/STM32/LLD/can_lld.h"
 657              		.file 28 "../e-puck2_main-processor/ChibiOS//os/hal/include/dac.h"
 658              		.file 29 "../e-puck2_main-processor/ChibiOS//os/hal/ports/STM32/LLD/DACv1/dac_lld.h"
 659              		.file 30 "../e-puck2_main-processor/ChibiOS//os/hal/include/ext.h"
 660              		.file 31 "../e-puck2_main-processor/ChibiOS//os/hal/ports/STM32/LLD/ext_lld.h"
 661              		.file 32 "../e-puck2_main-processor/ChibiOS//os/hal/include/gpt.h"
 662              		.file 33 "../e-puck2_main-processor/ChibiOS//os/hal/ports/STM32/LLD/TIMv1/gpt_lld.h"
 663              		.file 34 "../e-puck2_main-processor/ChibiOS//os/hal/ports/STM32/LLD/TIMv1/stm32_tim.h"
 664              		.file 35 "../e-puck2_main-processor/ChibiOS//os/hal/include/i2c.h"
 665              		.file 36 "../e-puck2_main-processor/ChibiOS//os/hal/ports/STM32/LLD/I2Cv1/i2c_lld.h"
 666              		.file 37 "../e-puck2_main-processor/ChibiOS//os/hal/include/i2s.h"
 667              		.file 38 "../e-puck2_main-processor/ChibiOS//os/hal/ports/STM32/LLD/SPIv1/i2s_lld.h"
 668              		.file 39 "../e-puck2_main-processor/ChibiOS//os/hal/include/pwm.h"
 669              		.file 40 "../e-puck2_main-processor/ChibiOS//os/hal/ports/STM32/LLD/TIMv1/pwm_lld.h"
 670              		.file 41 "../e-puck2_main-processor/ChibiOS//os/hal/include/serial.h"
 671              		.file 42 "../e-puck2_main-processor/ChibiOS//os/hal/ports/STM32/LLD/USARTv1/serial_lld.h"
 672              		.file 43 "../e-puck2_main-processor/ChibiOS//os/hal/include/sdc.h"
 673              		.file 44 "../e-puck2_main-processor/ChibiOS//os/hal/ports/STM32/LLD/sdc_lld.h"
 674              		.file 45 "../e-puck2_main-processor/ChibiOS//os/hal/include/spi.h"
 675              		.file 46 "../e-puck2_main-processor/ChibiOS//os/hal/ports/STM32/LLD/SPIv1/spi_lld.h"
 676              		.file 47 "../e-puck2_main-processor/ChibiOS//os/hal/include/usb.h"
 677              		.file 48 "../e-puck2_main-processor/ChibiOS//os/hal/ports/STM32/LLD/OTGv1/usb_lld.h"
 678              		.file 49 "../e-puck2_main-processor/ChibiOS//os/hal/ports/STM32/LLD/OTGv1/stm32_otg.h"
 679              		.file 50 "../e-puck2_main-processor/src/leds.h"
 680              		.file 51 "c:\\users\\valentin\\desktop\\eclipse_e-puck2\\tools\\gcc-arm-none-eabi-7-2017-q4-major-
 681              		.file 52 "c:\\users\\valentin\\desktop\\eclipse_e-puck2\\tools\\gcc-arm-none-eabi-7-2017-q4-major-
 682              		.file 53 "c:\\users\\valentin\\desktop\\eclipse_e-puck2\\tools\\gcc-arm-none-eabi-7-2017-q4-major-
ARM GAS  C:\Users\Valentin\AppData\Local\Temp\cciqgwhi.s 			page 13

