ARM GAS  C:\Users\Valentin\AppData\Local\Temp\ccwGsdXT.s 			page 1


   1              		.cpu cortex-m4
   2              		.eabi_attribute 27, 1
   3              		.eabi_attribute 28, 1
   4              		.eabi_attribute 20, 1
   5              		.eabi_attribute 21, 1
   6              		.eabi_attribute 23, 3
   7              		.eabi_attribute 24, 1
   8              		.eabi_attribute 25, 1
   9              		.eabi_attribute 26, 1
  10              		.eabi_attribute 30, 2
  11              		.eabi_attribute 34, 1
  12              		.eabi_attribute 18, 4
  13              		.file	"main.c"
  14              		.text
  15              	.Ltext0:
  16              		.cfi_sections	.debug_frame
  17              		.section	.text.chprintf.constprop.0,"ax",%progbits
  18              		.align	1
  19              		.p2align 4,,15
  20              		.syntax unified
  21              		.thumb
  22              		.thumb_func
  23              		.fpu fpv4-sp-d16
  24              		.type	chprintf.constprop.0, %function
  25              	chprintf.constprop.0:
  26              	.LFB264:
  27              		.file 1 "../e-puck2_main-processor/ChibiOS//os/hal/lib/streams/chprintf.h"
  28              		.loc 1 69 0
  29              		.cfi_startproc
  30              		@ args = 4, pretend = 12, frame = 8
  31              		@ frame_needed = 0, uses_anonymous_args = 1
  32              	.LVL0:
  33 0000 0EB4     		push	{r1, r2, r3}
  34              		.cfi_def_cfa_offset 12
  35              		.cfi_offset 1, -12
  36              		.cfi_offset 2, -8
  37              		.cfi_offset 3, -4
  38 0002 10B5     		push	{r4, lr}
  39              		.cfi_def_cfa_offset 20
  40              		.cfi_offset 4, -20
  41              		.cfi_offset 14, -16
  42 0004 0A4C     		ldr	r4, .L6
  43              		.loc 1 74 0
  44 0006 0B49     		ldr	r1, .L6+4
  45              		.loc 1 69 0
  46 0008 2368     		ldr	r3, [r4]
  47              		.loc 1 74 0
  48 000a 0B48     		ldr	r0, .L6+8
  49              	.LVL1:
  50              		.loc 1 69 0
  51 000c 83B0     		sub	sp, sp, #12
  52              		.cfi_def_cfa_offset 32
  53              		.loc 1 69 0
  54 000e 0193     		str	r3, [sp, #4]
  55              	.LVL2:
  56              		.loc 1 73 0
  57 0010 06AB     		add	r3, sp, #24
ARM GAS  C:\Users\Valentin\AppData\Local\Temp\ccwGsdXT.s 			page 2


  58              		.loc 1 74 0
  59 0012 1A46     		mov	r2, r3
  60              		.loc 1 73 0
  61 0014 0093     		str	r3, [sp]
  62              		.loc 1 74 0
  63 0016 FFF7FEFF 		bl	chvprintf
  64              	.LVL3:
  65              		.loc 1 78 0
  66 001a 019A     		ldr	r2, [sp, #4]
  67 001c 2368     		ldr	r3, [r4]
  68 001e 9A42     		cmp	r2, r3
  69 0020 04D1     		bne	.L5
  70 0022 03B0     		add	sp, sp, #12
  71              		.cfi_remember_state
  72              		.cfi_def_cfa_offset 20
  73              		@ sp needed
  74 0024 BDE81040 		pop	{r4, lr}
  75              		.cfi_restore 14
  76              		.cfi_restore 4
  77              		.cfi_def_cfa_offset 12
  78 0028 03B0     		add	sp, sp, #12
  79              		.cfi_restore 3
  80              		.cfi_restore 2
  81              		.cfi_restore 1
  82              		.cfi_def_cfa_offset 0
  83 002a 7047     		bx	lr
  84              	.L5:
  85              		.cfi_restore_state
  86 002c FFF7FEFF 		bl	__stack_chk_fail
  87              	.LVL4:
  88              	.L7:
  89              		.align	2
  90              	.L6:
  91 0030 00000000 		.word	__stack_chk_guard
  92 0034 00000000 		.word	.LC0
  93 0038 00000000 		.word	SD3
  94              		.cfi_endproc
  95              	.LFE264:
  96              		.size	chprintf.constprop.0, .-chprintf.constprop.0
  97              		.section	.text.initialisationLeds,"ax",%progbits
  98              		.align	1
  99              		.p2align 4,,15
 100              		.global	initialisationLeds
 101              		.syntax unified
 102              		.thumb
 103              		.thumb_func
 104              		.fpu fpv4-sp-d16
 105              		.type	initialisationLeds, %function
 106              	initialisationLeds:
 107              	.LFB260:
 108              		.file 2 "main.c"
 109              		.loc 2 30 0
 110              		.cfi_startproc
 111              		@ args = 0, pretend = 0, frame = 8
 112              		@ frame_needed = 0, uses_anonymous_args = 0
 113              	.LVL5:
 114 0000 F0B5     		push	{r4, r5, r6, r7, lr}
ARM GAS  C:\Users\Valentin\AppData\Local\Temp\ccwGsdXT.s 			page 3


 115              		.cfi_def_cfa_offset 20
 116              		.cfi_offset 4, -20
 117              		.cfi_offset 5, -16
 118              		.cfi_offset 6, -12
 119              		.cfi_offset 7, -8
 120              		.cfi_offset 14, -4
 121 0002 204F     		ldr	r7, .L20
 122 0004 83B0     		sub	sp, sp, #12
 123              		.cfi_def_cfa_offset 32
 124              		.loc 2 30 0
 125 0006 0646     		mov	r6, r0
 126 0008 3B68     		ldr	r3, [r7]
 127 000a 0193     		str	r3, [sp, #4]
 128              		.loc 2 31 0
 129 000c FFF7FEFF 		bl	clear_leds
 130              	.LVL6:
 131              		.loc 2 33 0
 132 0010 002E     		cmp	r6, #0
 133 0012 28DB     		blt	.L9
 134              		.loc 2 32 0
 135 0014 0025     		movs	r5, #0
 136              	.LVL7:
 137              	.L11:
 138 0016 0024     		movs	r4, #0
 139              	.L10:
 140              	.LVL8:
 141              	.LBB2:
 142              		.loc 2 35 0 discriminator 3
 143 0018 0121     		movs	r1, #1
 144 001a E0B2     		uxtb	r0, r4
 145 001c FFF7FEFF 		bl	set_led
 146              	.LVL9:
 147 0020 0134     		adds	r4, r4, #1
 148              	.LVL10:
 149              		.loc 2 36 0 discriminator 3
 150 0022 C820     		movs	r0, #200
 151 0024 FFF7FEFF 		bl	chThdSleep
 152              	.LVL11:
 153              		.loc 2 37 0 discriminator 3
 154 0028 FFF7FEFF 		bl	clear_leds
 155              	.LVL12:
 156              		.loc 2 34 0 discriminator 3
 157 002c 042C     		cmp	r4, #4
 158 002e F3D1     		bne	.L10
 159 0030 0135     		adds	r5, r5, #1
 160              	.LVL13:
 161 0032 6DB2     		sxtb	r5, r5
 162              	.LVL14:
 163              	.LBE2:
 164              		.loc 2 33 0
 165 0034 B542     		cmp	r5, r6
 166 0036 EEDD     		ble	.L11
 167              		.loc 2 41 0
 168 0038 0024     		movs	r4, #0
 169              	.LVL15:
 170              	.L12:
 171              		.loc 2 43 0
ARM GAS  C:\Users\Valentin\AppData\Local\Temp\ccwGsdXT.s 			page 4


 172 003a 0120     		movs	r0, #1
 173 003c FFF7FEFF 		bl	set_body_led
 174              	.LVL16:
 175              		.loc 2 44 0
 176 0040 0020     		movs	r0, #0
 177 0042 FFF7FEFF 		bl	set_front_led
 178              	.LVL17:
 179              		.loc 2 45 0
 180 0046 C820     		movs	r0, #200
 181 0048 FFF7FEFF 		bl	chThdSleep
 182              	.LVL18:
 183              		.loc 2 46 0
 184 004c 0020     		movs	r0, #0
 185 004e FFF7FEFF 		bl	set_body_led
 186              	.LVL19:
 187 0052 0134     		adds	r4, r4, #1
 188              	.LVL20:
 189              		.loc 2 47 0
 190 0054 0120     		movs	r0, #1
 191 0056 FFF7FEFF 		bl	set_front_led
 192              	.LVL21:
 193 005a 64B2     		sxtb	r4, r4
 194              		.loc 2 48 0
 195 005c C820     		movs	r0, #200
 196 005e FFF7FEFF 		bl	chThdSleep
 197              	.LVL22:
 198              		.loc 2 42 0
 199 0062 B442     		cmp	r4, r6
 200 0064 E9DD     		ble	.L12
 201              	.LVL23:
 202              	.L9:
 203              		.loc 2 51 0
 204 0066 0020     		movs	r0, #0
 205 0068 FFF7FEFF 		bl	set_front_led
 206              	.LVL24:
 207              		.loc 2 52 0
 208 006c 019A     		ldr	r2, [sp, #4]
 209 006e 3B68     		ldr	r3, [r7]
 210 0070 9A42     		cmp	r2, r3
 211 0072 04D1     		bne	.L19
 212              		.loc 2 53 0
 213 0074 03B0     		add	sp, sp, #12
 214              		.cfi_remember_state
 215              		.cfi_def_cfa_offset 20
 216              		@ sp needed
 217 0076 BDE8F040 		pop	{r4, r5, r6, r7, lr}
 218              		.cfi_restore 14
 219              		.cfi_restore 7
 220              		.cfi_restore 6
 221              		.cfi_restore 5
 222              		.cfi_restore 4
 223              		.cfi_def_cfa_offset 0
 224              	.LVL25:
 225              		.loc 2 52 0
 226 007a FFF7FEBF 		b	clear_leds
 227              	.LVL26:
 228              	.L19:
ARM GAS  C:\Users\Valentin\AppData\Local\Temp\ccwGsdXT.s 			page 5


 229              		.cfi_restore_state
 230 007e FFF7FEFF 		bl	__stack_chk_fail
 231              	.LVL27:
 232              	.L21:
 233 0082 00BF     		.align	2
 234              	.L20:
 235 0084 00000000 		.word	__stack_chk_guard
 236              		.cfi_endproc
 237              	.LFE260:
 238              		.size	initialisationLeds, .-initialisationLeds
 239              		.section	.text.mouvementRdm,"ax",%progbits
 240              		.align	1
 241              		.p2align 4,,15
 242              		.global	mouvementRdm
 243              		.syntax unified
 244              		.thumb
 245              		.thumb_func
 246              		.fpu fpv4-sp-d16
 247              		.type	mouvementRdm, %function
 248              	mouvementRdm:
 249              	.LFB261:
 250              		.loc 2 55 0
 251              		.cfi_startproc
 252              		@ args = 0, pretend = 0, frame = 8
 253              		@ frame_needed = 0, uses_anonymous_args = 0
 254 0000 30B5     		push	{r4, r5, lr}
 255              		.cfi_def_cfa_offset 12
 256              		.cfi_offset 4, -12
 257              		.cfi_offset 5, -8
 258              		.cfi_offset 14, -4
 259 0002 1D4C     		ldr	r4, .L32
 260 0004 83B0     		sub	sp, sp, #12
 261              		.cfi_def_cfa_offset 24
 262              		.loc 2 55 0
 263 0006 2368     		ldr	r3, [r4]
 264 0008 0193     		str	r3, [sp, #4]
 265              		.loc 2 57 0
 266 000a FFF7FEFF 		bl	VL53L0X_get_dist_mm
 267              	.LVL28:
 268              		.loc 2 58 0
 269 000e 1B49     		ldr	r1, .L32+4
 270              		.loc 2 57 0
 271 0010 0546     		mov	r5, r0
 272              	.LVL29:
 273              		.loc 2 58 0
 274 0012 0246     		mov	r2, r0
 275 0014 1A48     		ldr	r0, .L32+8
 276              	.LVL30:
 277 0016 FFF7FEFF 		bl	chprintf.constprop.0
 278              	.LVL31:
 279              		.loc 2 61 0
 280 001a 322D     		cmp	r5, #50
 281 001c 1CDC     		bgt	.L29
 282              	.LBB3:
 283              		.loc 2 65 0
 284 001e FFF7FEFF 		bl	stopMotors
 285              	.LVL32:
ARM GAS  C:\Users\Valentin\AppData\Local\Temp\ccwGsdXT.s 			page 6


 286              		.loc 2 66 0
 287 0022 FFF7FEFF 		bl	rand
 288              	.LVL33:
 289 0026 0028     		cmp	r0, #0
 290 0028 00F00100 		and	r0, r0, #1
 291 002c B8BF     		it	lt
 292 002e 4042     		rsblt	r0, r0, #0
 293              	.LVL34:
 294              		.loc 2 67 0
 295 0030 0128     		cmp	r0, #1
 296 0032 16D0     		beq	.L30
 297              		.loc 2 71 0
 298 0034 30B9     		cbnz	r0, .L24
 299              		.loc 2 72 0
 300 0036 3220     		movs	r0, #50
 301              	.LVL35:
 302 0038 FFF7FEFF 		bl	chThdSleep
 303              	.LVL36:
 304              		.loc 2 73 0
 305 003c 4FF4FA70 		mov	r0, #500
 306 0040 FFF7FEFF 		bl	turn_left
 307              	.LVL37:
 308              	.L24:
 309              	.LBE3:
 310              		.loc 2 76 0
 311 0044 019A     		ldr	r2, [sp, #4]
 312 0046 2368     		ldr	r3, [r4]
 313 0048 9A42     		cmp	r2, r3
 314 004a 12D1     		bne	.L31
 315 004c C820     		movs	r0, #200
 316              		.loc 2 77 0
 317 004e 03B0     		add	sp, sp, #12
 318              		.cfi_remember_state
 319              		.cfi_def_cfa_offset 12
 320              		@ sp needed
 321 0050 BDE83040 		pop	{r4, r5, lr}
 322              		.cfi_restore 14
 323              		.cfi_restore 5
 324              		.cfi_restore 4
 325              		.cfi_def_cfa_offset 0
 326              	.LVL38:
 327              		.loc 2 76 0
 328 0054 FFF7FEBF 		b	chThdSleep
 329              	.LVL39:
 330              	.L29:
 331              		.cfi_restore_state
 332              	.LBB4:
 333              		.loc 2 62 0
 334 0058 4FF4FA70 		mov	r0, #500
 335 005c FFF7FEFF 		bl	all_straight
 336              	.LVL40:
 337              	.LBE4:
 338 0060 F0E7     		b	.L24
 339              	.LVL41:
 340              	.L30:
 341              	.LBB5:
 342              		.loc 2 68 0
ARM GAS  C:\Users\Valentin\AppData\Local\Temp\ccwGsdXT.s 			page 7


 343 0062 3220     		movs	r0, #50
 344              	.LVL42:
 345 0064 FFF7FEFF 		bl	chThdSleep
 346              	.LVL43:
 347              		.loc 2 69 0
 348 0068 4FF4FA70 		mov	r0, #500
 349 006c FFF7FEFF 		bl	turn_right
 350              	.LVL44:
 351 0070 E8E7     		b	.L24
 352              	.L31:
 353              	.LBE5:
 354              		.loc 2 76 0
 355 0072 FFF7FEFF 		bl	__stack_chk_fail
 356              	.LVL45:
 357              	.L33:
 358 0076 00BF     		.align	2
 359              	.L32:
 360 0078 00000000 		.word	__stack_chk_guard
 361 007c 00000000 		.word	.LC0
 362 0080 00000000 		.word	SD3
 363              		.cfi_endproc
 364              	.LFE261:
 365              		.size	mouvementRdm, .-mouvementRdm
 366              		.section	.text.startup.main,"ax",%progbits
 367              		.align	1
 368              		.p2align 4,,15
 369              		.global	main
 370              		.syntax unified
 371              		.thumb
 372              		.thumb_func
 373              		.fpu fpv4-sp-d16
 374              		.type	main, %function
 375              	main:
 376              	.LFB262:
 377              		.loc 2 81 0
 378              		.cfi_startproc
 379              		@ args = 0, pretend = 0, frame = 8
 380              		@ frame_needed = 0, uses_anonymous_args = 0
 381 0000 70B5     		push	{r4, r5, r6, lr}
 382              		.cfi_def_cfa_offset 16
 383              		.cfi_offset 4, -16
 384              		.cfi_offset 5, -12
 385              		.cfi_offset 6, -8
 386              		.cfi_offset 14, -4
 387 0002 3D4B     		ldr	r3, .L46
 388              	.LBB6:
 389              		.loc 2 104 0
 390 0004 3D4E     		ldr	r6, .L46+4
 391              	.LBE6:
 392              		.loc 2 81 0
 393 0006 1B68     		ldr	r3, [r3]
 394              	.LBB9:
 395              		.loc 2 104 0
 396 0008 3D4D     		ldr	r5, .L46+8
 397              	.LBE9:
 398              		.loc 2 81 0
 399 000a 82B0     		sub	sp, sp, #8
ARM GAS  C:\Users\Valentin\AppData\Local\Temp\ccwGsdXT.s 			page 8


 400              		.cfi_def_cfa_offset 24
 401              		.loc 2 81 0
 402 000c 0193     		str	r3, [sp, #4]
 403              		.loc 2 83 0
 404 000e FFF7FEFF 		bl	halInit
 405              	.LVL46:
 406              		.loc 2 84 0
 407 0012 FFF7FEFF 		bl	chSysInit
 408              	.LVL47:
 409              		.loc 2 85 0
 410 0016 3B4A     		ldr	r2, .L46+12
 411 0018 3B49     		ldr	r1, .L46+16
 412 001a 3C48     		ldr	r0, .L46+20
 413 001c FFF7FEFF 		bl	messagebus_init
 414              	.LVL48:
 415              		.loc 2 87 0
 416 0020 0120     		movs	r0, #1
 417 0022 FFF7FEFF 		bl	initialisationLeds
 418              	.LVL49:
 419              		.loc 2 89 0
 420 0026 FFF7FEFF 		bl	motors_init
 421              	.LVL50:
 422              		.loc 2 90 0
 423 002a FFF7FEFF 		bl	serial_start
 424              	.LVL51:
 425              		.loc 2 91 0
 426 002e FFF7FEFF 		bl	VL53L0X_start
 427              	.LVL52:
 428              		.loc 2 93 0
 429 0032 FFF7FEFF 		bl	imu_start
 430              	.LVL53:
 431              		.loc 2 94 0
 432 0036 FFF7FEFF 		bl	calibrate_gyro
 433              	.LVL54:
 434              		.loc 2 97 0
 435 003a 0321     		movs	r1, #3
 436 003c 4FF42F70 		mov	r0, #700
 437 0040 FFF7FEFF 		bl	show_panic
 438              	.LVL55:
 439              		.loc 2 99 0
 440 0044 40F62410 		movw	r0, #2340
 441 0048 FFF7FEFF 		bl	srand
 442              	.LVL56:
 443 004c 06E0     		b	.L40
 444              	.LVL57:
 445              	.L44:
 446              	.LBB10:
 447              		.loc 2 110 0
 448 004e 40F22620 		movw	r0, #550
 449 0052 FFF7FEFF 		bl	go_straight
 450              	.LVL58:
 451              	.L36:
 452              		.loc 2 143 0
 453 0056 C820     		movs	r0, #200
 454 0058 FFF7FEFF 		bl	chThdSleep
 455              	.LVL59:
 456              	.L40:
ARM GAS  C:\Users\Valentin\AppData\Local\Temp\ccwGsdXT.s 			page 9


 457              		.loc 2 103 0
 458 005c FFF7FEFF 		bl	VL53L0X_get_dist_mm
 459              	.LVL60:
 460              		.loc 2 104 0
 461 0060 3146     		mov	r1, r6
 462              		.loc 2 103 0
 463 0062 0446     		mov	r4, r0
 464              	.LVL61:
 465              		.loc 2 104 0
 466 0064 0246     		mov	r2, r0
 467 0066 2846     		mov	r0, r5
 468              	.LVL62:
 469 0068 FFF7FEFF 		bl	chprintf.constprop.0
 470              	.LVL63:
 471              		.loc 2 106 0
 472 006c 962C     		cmp	r4, #150
 473 006e 26DC     		bgt	.L43
 474              		.loc 2 109 0
 475 0070 333C     		subs	r4, r4, #51
 476              	.LVL64:
 477 0072 622C     		cmp	r4, #98
 478 0074 EBD9     		bls	.L44
 479              	.LBB7:
 480              		.loc 2 113 0
 481 0076 FFF7FEFF 		bl	stopMotors
 482              	.LVL65:
 483              		.loc 2 114 0
 484 007a 4FF4FA70 		mov	r0, #500
 485 007e FFF7FEFF 		bl	leds_stop
 486              	.LVL66:
 487              		.loc 2 118 0
 488 0082 4FF4B770 		mov	r0, #366
 489 0086 FFF7FEFF 		bl	turn_left
 490              	.LVL67:
 491              		.loc 2 119 0
 492 008a 3220     		movs	r0, #50
 493 008c FFF7FEFF 		bl	chThdSleep
 494              	.LVL68:
 495              		.loc 2 120 0
 496 0090 FFF7FEFF 		bl	VL53L0X_get_dist_mm
 497              	.LVL69:
 498 0094 0446     		mov	r4, r0
 499              	.LVL70:
 500              		.loc 2 123 0
 501 0096 4FF4B770 		mov	r0, #366
 502              	.LVL71:
 503 009a FFF7FEFF 		bl	u_turn
 504              	.LVL72:
 505              		.loc 2 124 0
 506 009e 3220     		movs	r0, #50
 507 00a0 FFF7FEFF 		bl	chThdSleep
 508              	.LVL73:
 509              		.loc 2 125 0
 510 00a4 FFF7FEFF 		bl	VL53L0X_get_dist_mm
 511              	.LVL74:
 512              		.loc 2 128 0
 513 00a8 632C     		cmp	r4, #99
ARM GAS  C:\Users\Valentin\AppData\Local\Temp\ccwGsdXT.s 			page 10


 514 00aa 0DDC     		bgt	.L38
 515              		.loc 2 128 0 is_stmt 0 discriminator 1
 516 00ac 6328     		cmp	r0, #99
 517 00ae 18DD     		ble	.L45
 518              	.L39:
 519              		.loc 2 139 0 is_stmt 1
 520 00b0 FFF7FEFF 		bl	stopMotors
 521              	.LVL75:
 522              		.loc 2 140 0
 523 00b4 4FF4FA70 		mov	r0, #500
 524 00b8 FFF7FEFF 		bl	chThdSleep
 525              	.LVL76:
 526 00bc CBE7     		b	.L36
 527              	.LVL77:
 528              	.L43:
 529              	.LBE7:
 530              		.loc 2 107 0
 531 00be 40F24C40 		movw	r0, #1100
 532 00c2 FFF7FEFF 		bl	go_straight
 533              	.LVL78:
 534 00c6 C6E7     		b	.L36
 535              	.LVL79:
 536              	.L38:
 537              	.LBB8:
 538              		.loc 2 133 0
 539 00c8 8442     		cmp	r4, r0
 540 00ca F1DD     		ble	.L39
 541              		.loc 2 134 0
 542 00cc 4FF4B770 		mov	r0, #366
 543              	.LVL80:
 544 00d0 FFF7FEFF 		bl	u_turn
 545              	.LVL81:
 546              		.loc 2 135 0
 547 00d4 FFF7FEFF 		bl	stopMotors
 548              	.LVL82:
 549              		.loc 2 136 0
 550 00d8 4FF4FA70 		mov	r0, #500
 551 00dc FFF7FEFF 		bl	chThdSleep
 552              	.LVL83:
 553 00e0 B9E7     		b	.L36
 554              	.LVL84:
 555              	.L45:
 556              		.loc 2 129 0
 557 00e2 4FF4B770 		mov	r0, #366
 558              	.LVL85:
 559 00e6 FFF7FEFF 		bl	turn_right
 560              	.LVL86:
 561              		.loc 2 130 0
 562 00ea FFF7FEFF 		bl	stopMotors
 563              	.LVL87:
 564              		.loc 2 131 0
 565 00ee 4FF4FA70 		mov	r0, #500
 566 00f2 FFF7FEFF 		bl	chThdSleep
 567              	.LVL88:
 568 00f6 AEE7     		b	.L36
 569              	.L47:
 570              		.align	2
ARM GAS  C:\Users\Valentin\AppData\Local\Temp\ccwGsdXT.s 			page 11


 571              	.L46:
 572 00f8 00000000 		.word	__stack_chk_guard
 573 00fc 00000000 		.word	.LC0
 574 0100 00000000 		.word	SD3
 575 0104 00000000 		.word	.LANCHOR0
 576 0108 00000000 		.word	.LANCHOR1
 577 010c 00000000 		.word	.LANCHOR2
 578              	.LBE8:
 579              	.LBE10:
 580              		.cfi_endproc
 581              	.LFE262:
 582              		.size	main, .-main
 583              		.section	.text.__stack_chk_fail,"ax",%progbits
 584              		.align	1
 585              		.p2align 4,,15
 586              		.global	__stack_chk_fail
 587              		.syntax unified
 588              		.thumb
 589              		.thumb_func
 590              		.fpu fpv4-sp-d16
 591              		.type	__stack_chk_fail, %function
 592              	__stack_chk_fail:
 593              	.LFB263:
 594              		.loc 2 153 0
 595              		.cfi_startproc
 596              		@ args = 0, pretend = 0, frame = 8
 597              		@ frame_needed = 0, uses_anonymous_args = 0
 598 0000 00B5     		push	{lr}
 599              		.cfi_def_cfa_offset 4
 600              		.cfi_offset 14, -4
 601 0002 084B     		ldr	r3, .L53
 602 0004 83B0     		sub	sp, sp, #12
 603              		.cfi_def_cfa_offset 16
 604              		.loc 2 153 0
 605 0006 1A68     		ldr	r2, [r3]
 606 0008 0192     		str	r2, [sp, #4]
 607              		.loc 2 154 0
 608 000a 019A     		ldr	r2, [sp, #4]
 609 000c 1B68     		ldr	r3, [r3]
 610 000e 9A42     		cmp	r2, r3
 611 0010 05D1     		bne	.L52
 612 0012 0548     		ldr	r0, .L53+4
 613              		.loc 2 155 0
 614 0014 03B0     		add	sp, sp, #12
 615              		.cfi_remember_state
 616              		.cfi_def_cfa_offset 4
 617              		@ sp needed
 618 0016 5DF804EB 		ldr	lr, [sp], #4
 619              		.cfi_restore 14
 620              		.cfi_def_cfa_offset 0
 621              		.loc 2 154 0
 622 001a FFF7FEBF 		b	chSysHalt
 623              	.LVL89:
 624              	.L52:
 625              		.cfi_restore_state
 626 001e FFF7FEFF 		bl	__stack_chk_fail
 627              	.LVL90:
ARM GAS  C:\Users\Valentin\AppData\Local\Temp\ccwGsdXT.s 			page 12


 628              	.L54:
 629 0022 00BF     		.align	2
 630              	.L53:
 631 0024 00000000 		.word	__stack_chk_guard
 632 0028 00000000 		.word	.LC1
 633              		.cfi_endproc
 634              	.LFE263:
 635              		.size	__stack_chk_fail, .-__stack_chk_fail
 636              		.global	__stack_chk_guard
 637              		.global	bus_condvar
 638              		.global	bus_lock
 639              		.global	bus
 640              		.section	.bss.bus,"aw",%nobits
 641              		.align	2
 642              		.set	.LANCHOR2,. + 0
 643              		.type	bus, %object
 644              		.size	bus, 12
 645              	bus:
 646 0000 00000000 		.space	12
 646      00000000 
 646      00000000 
 647              		.section	.data.__stack_chk_guard,"aw",%progbits
 648              		.align	2
 649              		.type	__stack_chk_guard, %object
 650              		.size	__stack_chk_guard, 4
 651              	__stack_chk_guard:
 652 0000 96E3DEE2 		.word	-488709226
 653              		.section	.data.bus_condvar,"aw",%progbits
 654              		.align	2
 655              		.set	.LANCHOR0,. + 0
 656              		.type	bus_condvar, %object
 657              		.size	bus_condvar, 8
 658              	bus_condvar:
 659 0000 00000000 		.word	bus_condvar
 660 0004 00000000 		.word	bus_condvar
 661              		.section	.data.bus_lock,"aw",%progbits
 662              		.align	2
 663              		.set	.LANCHOR1,. + 0
 664              		.type	bus_lock, %object
 665              		.size	bus_lock, 20
 666              	bus_lock:
 667 0000 00000000 		.word	bus_lock
 668 0004 00000000 		.word	bus_lock
 669 0008 00000000 		.word	0
 670 000c 00000000 		.word	0
 671 0010 00000000 		.word	0
 672              		.section	.rodata.__stack_chk_fail.str1.4,"aMS",%progbits,1
 673              		.align	2
 674              	.LC1:
 675 0000 53746163 		.ascii	"Stack smashing detected\000"
 675      6B20736D 
 675      61736869 
 675      6E672064 
 675      65746563 
 676              		.section	.rodata.chprintf.constprop.0.str1.4,"aMS",%progbits,1
 677              		.align	2
 678              	.LC0:
ARM GAS  C:\Users\Valentin\AppData\Local\Temp\ccwGsdXT.s 			page 13


 679 0000 20446973 		.ascii	" Distance= %d \015\012\000"
 679      74616E63 
 679      653D2025 
 679      64200D0A 
 679      00
 680              		.text
 681              	.Letext0:
 682              		.file 3 "c:\\users\\valentin\\desktop\\eclipse_e-puck2\\tools\\gcc-arm-none-eabi-7-2017-q4-major-w
 683              		.file 4 "c:\\users\\valentin\\desktop\\eclipse_e-puck2\\tools\\gcc-arm-none-eabi-7-2017-q4-major-w
 684              		.file 5 "c:\\users\\valentin\\desktop\\eclipse_e-puck2\\tools\\gcc-arm-none-eabi-7-2017-q4-major-w
 685              		.file 6 "c:\\users\\valentin\\desktop\\eclipse_e-puck2\\tools\\gcc-arm-none-eabi-7-2017-q4-major-w
 686              		.file 7 "c:\\users\\valentin\\desktop\\eclipse_e-puck2\\tools\\gcc-arm-none-eabi-7-2017-q4-major-w
 687              		.file 8 "c:\\users\\valentin\\desktop\\eclipse_e-puck2\\tools\\gcc-arm-none-eabi-7-2017-q4-major-w
 688              		.file 9 "c:\\users\\valentin\\desktop\\eclipse_e-puck2\\tools\\gcc-arm-none-eabi-7-2017-q4-major-w
 689              		.file 10 "<built-in>"
 690              		.file 11 "c:\\users\\valentin\\desktop\\eclipse_e-puck2\\tools\\gcc-arm-none-eabi-7-2017-q4-major-
 691              		.file 12 "c:\\users\\valentin\\desktop\\eclipse_e-puck2\\tools\\gcc-arm-none-eabi-7-2017-q4-major-
 692              		.file 13 "c:\\users\\valentin\\desktop\\eclipse_e-puck2\\tools\\gcc-arm-none-eabi-7-2017-q4-major-
 693              		.file 14 "../e-puck2_main-processor/ChibiOS//os/rt/ports/ARMCMx/compilers/GCC/chtypes.h"
 694              		.file 15 "../e-puck2_main-processor/ChibiOS//os/rt/include/chsystypes.h"
 695              		.file 16 "../e-puck2_main-processor/ChibiOS//os/rt/include/chschd.h"
 696              		.file 17 "../e-puck2_main-processor/ChibiOS//os/ext/CMSIS/include/core_cm4.h"
 697              		.file 18 "../e-puck2_main-processor/ChibiOS//os/ext/CMSIS/ST/system_stm32f4xx.h"
 698              		.file 19 "../e-puck2_main-processor/ChibiOS//os/ext/CMSIS/ST/stm32f407xx.h"
 699              		.file 20 "../e-puck2_main-processor/ChibiOS//os/rt/ports/ARMCMx/chcore.h"
 700              		.file 21 "../e-puck2_main-processor/ChibiOS//os/rt/ports/ARMCMx/chcore_v7m.h"
 701              		.file 22 "../e-puck2_main-processor/ChibiOS//os/rt/include/chdebug.h"
 702              		.file 23 "../e-puck2_main-processor/ChibiOS//os/rt/include/chtm.h"
 703              		.file 24 "../e-puck2_main-processor/ChibiOS//os/rt/include/chstats.h"
 704              		.file 25 "../e-puck2_main-processor/ChibiOS//os/rt/include/chsem.h"
 705              		.file 26 "../e-puck2_main-processor/ChibiOS//os/rt/include/chmtx.h"
 706              		.file 27 "../e-puck2_main-processor/ChibiOS//os/rt/include/chregistry.h"
 707              		.file 28 "../e-puck2_main-processor/ChibiOS//os/rt/include/chcond.h"
 708              		.file 29 "../e-puck2_main-processor/ChibiOS//os/rt/include/chevents.h"
 709              		.file 30 "../e-puck2_main-processor/ChibiOS//os/rt/include/chqueues.h"
 710              		.file 31 "../e-puck2_main-processor/ChibiOS//os/rt/include/chstreams.h"
 711              		.file 32 "../e-puck2_main-processor/ChibiOS//os/hal/ports/STM32/STM32F4xx/stm32_dma.h"
 712              		.file 33 "../e-puck2_main-processor/ChibiOS//os/hal/include/hal_ioblock.h"
 713              		.file 34 "../e-puck2_main-processor/ChibiOS//os/hal/ports/STM32/LLD/GPIOv2/pal_lld.h"
 714              		.file 35 "../e-puck2_main-processor/ChibiOS//os/hal/include/adc.h"
 715              		.file 36 "../e-puck2_main-processor/ChibiOS//os/hal/ports/STM32/STM32F4xx/adc_lld.h"
 716              		.file 37 "../e-puck2_main-processor/ChibiOS//os/hal/include/can.h"
 717              		.file 38 "../e-puck2_main-processor/ChibiOS//os/hal/ports/STM32/LLD/can_lld.h"
 718              		.file 39 "../e-puck2_main-processor/ChibiOS//os/hal/include/dac.h"
 719              		.file 40 "../e-puck2_main-processor/ChibiOS//os/hal/ports/STM32/LLD/DACv1/dac_lld.h"
 720              		.file 41 "../e-puck2_main-processor/ChibiOS//os/hal/include/ext.h"
 721              		.file 42 "../e-puck2_main-processor/ChibiOS//os/hal/ports/STM32/LLD/ext_lld.h"
 722              		.file 43 "../e-puck2_main-processor/ChibiOS//os/hal/include/gpt.h"
 723              		.file 44 "../e-puck2_main-processor/ChibiOS//os/hal/ports/STM32/LLD/TIMv1/gpt_lld.h"
 724              		.file 45 "../e-puck2_main-processor/ChibiOS//os/hal/ports/STM32/LLD/TIMv1/stm32_tim.h"
 725              		.file 46 "../e-puck2_main-processor/ChibiOS//os/hal/include/i2c.h"
 726              		.file 47 "../e-puck2_main-processor/ChibiOS//os/hal/ports/STM32/LLD/I2Cv1/i2c_lld.h"
 727              		.file 48 "../e-puck2_main-processor/ChibiOS//os/hal/include/i2s.h"
 728              		.file 49 "../e-puck2_main-processor/ChibiOS//os/hal/ports/STM32/LLD/SPIv1/i2s_lld.h"
 729              		.file 50 "../e-puck2_main-processor/ChibiOS//os/hal/include/pwm.h"
 730              		.file 51 "../e-puck2_main-processor/ChibiOS//os/hal/ports/STM32/LLD/TIMv1/pwm_lld.h"
 731              		.file 52 "../e-puck2_main-processor/ChibiOS//os/hal/include/serial.h"
ARM GAS  C:\Users\Valentin\AppData\Local\Temp\ccwGsdXT.s 			page 14


 732              		.file 53 "../e-puck2_main-processor/ChibiOS//os/hal/ports/STM32/LLD/USARTv1/serial_lld.h"
 733              		.file 54 "../e-puck2_main-processor/ChibiOS//os/hal/include/sdc.h"
 734              		.file 55 "../e-puck2_main-processor/ChibiOS//os/hal/ports/STM32/LLD/sdc_lld.h"
 735              		.file 56 "../e-puck2_main-processor/ChibiOS//os/hal/include/spi.h"
 736              		.file 57 "../e-puck2_main-processor/ChibiOS//os/hal/ports/STM32/LLD/SPIv1/spi_lld.h"
 737              		.file 58 "../e-puck2_main-processor/ChibiOS//os/hal/include/usb.h"
 738              		.file 59 "../e-puck2_main-processor/ChibiOS//os/hal/ports/STM32/LLD/OTGv1/usb_lld.h"
 739              		.file 60 "../e-puck2_main-processor/ChibiOS//os/hal/ports/STM32/LLD/OTGv1/stm32_otg.h"
 740              		.file 61 "c:\\users\\valentin\\desktop\\eclipse_e-puck2\\tools\\gcc-arm-none-eabi-7-2017-q4-major-
 741              		.file 62 "../e-puck2_main-processor/src/msgbus/messagebus.h"
 742              		.file 63 "../e-puck2_main-processor/src/parameter/parameter.h"
 743              		.file 64 "./main.h"
 744              		.file 65 "../e-puck2_main-processor/ChibiOS//os/rt/include/chsys.h"
 745              		.file 66 "./usageMotors.h"
 746              		.file 67 "./actionUser.h"
 747              		.file 68 "../e-puck2_main-processor/ChibiOS//os/rt/include/chthreads.h"
 748              		.file 69 "../e-puck2_main-processor/src/sensors/VL53L0X/VL53L0X.h"
 749              		.file 70 "../e-puck2_main-processor/ChibiOS//os/hal/include/hal.h"
 750              		.file 71 "../e-puck2_main-processor/src/motors.h"
 751              		.file 72 "../e-puck2_main-processor/src/sensors/imu.h"
 752              		.file 73 "../e-puck2_main-processor/src/leds.h"