ARM GAS  C:\Users\Valentin\AppData\Local\Temp\ccp81R2O.s 			page 1


   1              		.cpu cortex-m4
   2              		.eabi_attribute 27, 1
   3              		.eabi_attribute 28, 1
   4              		.eabi_attribute 20, 1
   5              		.eabi_attribute 21, 1
   6              		.eabi_attribute 23, 3
   7              		.eabi_attribute 24, 1
   8              		.eabi_attribute 25, 1
   9              		.eabi_attribute 26, 1
  10              		.eabi_attribute 30, 2
  11              		.eabi_attribute 34, 1
  12              		.eabi_attribute 18, 4
  13              		.file	"mouvement.c"
  14              		.text
  15              	.Ltext0:
  16              		.cfi_sections	.debug_frame
  17              		.section	.text.tout_droit,"ax",%progbits
  18              		.align	1
  19              		.p2align 4,,15
  20              		.global	tout_droit
  21              		.syntax unified
  22              		.thumb
  23              		.thumb_func
  24              		.fpu fpv4-sp-d16
  25              		.type	tout_droit, %function
  26              	tout_droit:
  27              	.LFB256:
  28              		.file 1 "mouvement.c"
  29              		.loc 1 8 0
  30              		.cfi_startproc
  31              		@ args = 0, pretend = 0, frame = 8
  32              		@ frame_needed = 0, uses_anonymous_args = 0
  33              	.LVL0:
  34 0000 30B5     		push	{r4, r5, lr}
  35              		.cfi_def_cfa_offset 12
  36              		.cfi_offset 4, -12
  37              		.cfi_offset 5, -8
  38              		.cfi_offset 14, -4
  39 0002 094C     		ldr	r4, .L7
  40 0004 83B0     		sub	sp, sp, #12
  41              		.cfi_def_cfa_offset 24
  42              		.loc 1 8 0
  43 0006 2368     		ldr	r3, [r4]
  44 0008 0193     		str	r3, [sp, #4]
  45 000a 0546     		mov	r5, r0
  46              		.loc 1 9 0
  47 000c FFF7FEFF 		bl	right_motor_set_speed
  48              	.LVL1:
  49              		.loc 1 10 0
  50 0010 019A     		ldr	r2, [sp, #4]
  51 0012 2368     		ldr	r3, [r4]
  52 0014 9A42     		cmp	r2, r3
  53 0016 05D1     		bne	.L6
  54 0018 2846     		mov	r0, r5
  55              		.loc 1 11 0
  56 001a 03B0     		add	sp, sp, #12
  57              		.cfi_remember_state
ARM GAS  C:\Users\Valentin\AppData\Local\Temp\ccp81R2O.s 			page 2


  58              		.cfi_def_cfa_offset 12
  59              		@ sp needed
  60 001c BDE83040 		pop	{r4, r5, lr}
  61              		.cfi_restore 14
  62              		.cfi_restore 5
  63              		.cfi_restore 4
  64              		.cfi_def_cfa_offset 0
  65              	.LVL2:
  66              		.loc 1 10 0
  67 0020 FFF7FEBF 		b	left_motor_set_speed
  68              	.LVL3:
  69              	.L6:
  70              		.cfi_restore_state
  71 0024 FFF7FEFF 		bl	__stack_chk_fail
  72              	.LVL4:
  73              	.L8:
  74              		.align	2
  75              	.L7:
  76 0028 00000000 		.word	__stack_chk_guard
  77              		.cfi_endproc
  78              	.LFE256:
  79              		.size	tout_droit, .-tout_droit
  80              		.section	.text.virage_droite,"ax",%progbits
  81              		.align	1
  82              		.p2align 4,,15
  83              		.global	virage_droite
  84              		.syntax unified
  85              		.thumb
  86              		.thumb_func
  87              		.fpu fpv4-sp-d16
  88              		.type	virage_droite, %function
  89              	virage_droite:
  90              	.LFB257:
  91              		.loc 1 14 0
  92              		.cfi_startproc
  93              		@ args = 0, pretend = 0, frame = 8
  94              		@ frame_needed = 0, uses_anonymous_args = 0
  95              	.LVL5:
  96 0000 70B5     		push	{r4, r5, r6, lr}
  97              		.cfi_def_cfa_offset 16
  98              		.cfi_offset 4, -16
  99              		.cfi_offset 5, -12
 100              		.cfi_offset 6, -8
 101              		.cfi_offset 14, -4
 102 0002 2DED028B 		vpush.64	{d8}
 103              		.cfi_def_cfa_offset 24
 104              		.cfi_offset 80, -24
 105              		.cfi_offset 81, -20
 106 0006 1A4E     		ldr	r6, .L18
 107              		.loc 1 17 0
 108 0008 9FED1A8A 		vldr.32	s16, .L18+4
 109              		.loc 1 14 0
 110 000c 3368     		ldr	r3, [r6]
 111 000e 82B0     		sub	sp, sp, #8
 112              		.cfi_def_cfa_offset 32
 113              		.loc 1 14 0
 114 0010 0446     		mov	r4, r0
ARM GAS  C:\Users\Valentin\AppData\Local\Temp\ccp81R2O.s 			page 3


 115              		.loc 1 15 0
 116 0012 0020     		movs	r0, #0
 117              	.LVL6:
 118              		.loc 1 14 0
 119 0014 0193     		str	r3, [sp, #4]
 120              		.loc 1 15 0
 121 0016 FFF7FEFF 		bl	right_motor_set_pos
 122              	.LVL7:
 123              		.loc 1 16 0
 124 001a 0020     		movs	r0, #0
 125              		.loc 1 18 0
 126 001c 6542     		negs	r5, r4
 127              		.loc 1 16 0
 128 001e FFF7FEFF 		bl	left_motor_set_pos
 129              	.LVL8:
 130              		.loc 1 17 0
 131 0022 10E0     		b	.L10
 132              	.L16:
 133              		.loc 1 17 0 is_stmt 0 discriminator 1
 134 0024 FFF7FEFF 		bl	right_motor_get_pos
 135              	.LVL9:
 136 0028 07EE900A 		vmov	s15, r0	@ int
 137 002c F8EEE77A 		vcvt.f32.s32	s15, s15
 138 0030 F4EEC87A 		vcmpe.f32	s15, s16
 139 0034 F1EE10FA 		vmrs	APSR_nzcv, FPSCR
 140 0038 10D5     		bpl	.L9
 141              		.loc 1 18 0 is_stmt 1
 142 003a 2846     		mov	r0, r5
 143 003c FFF7FEFF 		bl	right_motor_set_speed
 144              	.LVL10:
 145              		.loc 1 19 0
 146 0040 2046     		mov	r0, r4
 147 0042 FFF7FEFF 		bl	left_motor_set_speed
 148              	.LVL11:
 149              	.L10:
 150              		.loc 1 17 0
 151 0046 FFF7FEFF 		bl	left_motor_get_pos
 152              	.LVL12:
 153 004a 07EE900A 		vmov	s15, r0	@ int
 154 004e F8EEE77A 		vcvt.f32.s32	s15, s15
 155 0052 F4EEC87A 		vcmpe.f32	s15, s16
 156 0056 F1EE10FA 		vmrs	APSR_nzcv, FPSCR
 157 005a E3D4     		bmi	.L16
 158              	.L9:
 159              		.loc 1 21 0
 160 005c 019A     		ldr	r2, [sp, #4]
 161 005e 3368     		ldr	r3, [r6]
 162 0060 9A42     		cmp	r2, r3
 163 0062 03D1     		bne	.L17
 164 0064 02B0     		add	sp, sp, #8
 165              		.cfi_remember_state
 166              		.cfi_def_cfa_offset 24
 167              		@ sp needed
 168 0066 BDEC028B 		vldm	sp!, {d8}
 169              		.cfi_restore 80
 170              		.cfi_restore 81
 171              		.cfi_def_cfa_offset 16
ARM GAS  C:\Users\Valentin\AppData\Local\Temp\ccp81R2O.s 			page 4


 172 006a 70BD     		pop	{r4, r5, r6, pc}
 173              	.LVL13:
 174              	.L17:
 175              		.cfi_restore_state
 176 006c FFF7FEFF 		bl	__stack_chk_fail
 177              	.LVL14:
 178              	.L19:
 179              		.align	2
 180              	.L18:
 181 0070 00000000 		.word	__stack_chk_guard
 182 0074 92DFA343 		.word	1134813074
 183              		.cfi_endproc
 184              	.LFE257:
 185              		.size	virage_droite, .-virage_droite
 186              		.section	.text.virage_gauche,"ax",%progbits
 187              		.align	1
 188              		.p2align 4,,15
 189              		.global	virage_gauche
 190              		.syntax unified
 191              		.thumb
 192              		.thumb_func
 193              		.fpu fpv4-sp-d16
 194              		.type	virage_gauche, %function
 195              	virage_gauche:
 196              	.LFB258:
 197              		.loc 1 24 0
 198              		.cfi_startproc
 199              		@ args = 0, pretend = 0, frame = 8
 200              		@ frame_needed = 0, uses_anonymous_args = 0
 201              	.LVL15:
 202 0000 70B5     		push	{r4, r5, r6, lr}
 203              		.cfi_def_cfa_offset 16
 204              		.cfi_offset 4, -16
 205              		.cfi_offset 5, -12
 206              		.cfi_offset 6, -8
 207              		.cfi_offset 14, -4
 208 0002 2DED028B 		vpush.64	{d8}
 209              		.cfi_def_cfa_offset 24
 210              		.cfi_offset 80, -24
 211              		.cfi_offset 81, -20
 212 0006 1A4E     		ldr	r6, .L29
 213              		.loc 1 27 0
 214 0008 9FED1A8A 		vldr.32	s16, .L29+4
 215              		.loc 1 24 0
 216 000c 3368     		ldr	r3, [r6]
 217 000e 82B0     		sub	sp, sp, #8
 218              		.cfi_def_cfa_offset 32
 219              		.loc 1 24 0
 220 0010 0446     		mov	r4, r0
 221              		.loc 1 25 0
 222 0012 0020     		movs	r0, #0
 223              	.LVL16:
 224              		.loc 1 24 0
 225 0014 0193     		str	r3, [sp, #4]
 226              		.loc 1 25 0
 227 0016 FFF7FEFF 		bl	right_motor_set_pos
 228              	.LVL17:
ARM GAS  C:\Users\Valentin\AppData\Local\Temp\ccp81R2O.s 			page 5


 229              		.loc 1 26 0
 230 001a 0020     		movs	r0, #0
 231              		.loc 1 29 0
 232 001c 6542     		negs	r5, r4
 233              		.loc 1 26 0
 234 001e FFF7FEFF 		bl	left_motor_set_pos
 235              	.LVL18:
 236              		.loc 1 27 0
 237 0022 10E0     		b	.L21
 238              	.L27:
 239              		.loc 1 27 0 is_stmt 0 discriminator 1
 240 0024 FFF7FEFF 		bl	right_motor_get_pos
 241              	.LVL19:
 242 0028 07EE900A 		vmov	s15, r0	@ int
 243 002c F8EEE77A 		vcvt.f32.s32	s15, s15
 244 0030 F4EEC87A 		vcmpe.f32	s15, s16
 245 0034 F1EE10FA 		vmrs	APSR_nzcv, FPSCR
 246 0038 10D5     		bpl	.L20
 247              		.loc 1 28 0 is_stmt 1
 248 003a 2046     		mov	r0, r4
 249 003c FFF7FEFF 		bl	right_motor_set_speed
 250              	.LVL20:
 251              		.loc 1 29 0
 252 0040 2846     		mov	r0, r5
 253 0042 FFF7FEFF 		bl	left_motor_set_speed
 254              	.LVL21:
 255              	.L21:
 256              		.loc 1 27 0
 257 0046 FFF7FEFF 		bl	left_motor_get_pos
 258              	.LVL22:
 259 004a 07EE900A 		vmov	s15, r0	@ int
 260 004e F8EEE77A 		vcvt.f32.s32	s15, s15
 261 0052 F4EEC87A 		vcmpe.f32	s15, s16
 262 0056 F1EE10FA 		vmrs	APSR_nzcv, FPSCR
 263 005a E3D4     		bmi	.L27
 264              	.L20:
 265              		.loc 1 31 0
 266 005c 019A     		ldr	r2, [sp, #4]
 267 005e 3368     		ldr	r3, [r6]
 268 0060 9A42     		cmp	r2, r3
 269 0062 03D1     		bne	.L28
 270 0064 02B0     		add	sp, sp, #8
 271              		.cfi_remember_state
 272              		.cfi_def_cfa_offset 24
 273              		@ sp needed
 274 0066 BDEC028B 		vldm	sp!, {d8}
 275              		.cfi_restore 80
 276              		.cfi_restore 81
 277              		.cfi_def_cfa_offset 16
 278 006a 70BD     		pop	{r4, r5, r6, pc}
 279              	.LVL23:
 280              	.L28:
 281              		.cfi_restore_state
 282 006c FFF7FEFF 		bl	__stack_chk_fail
 283              	.LVL24:
 284              	.L30:
 285              		.align	2
ARM GAS  C:\Users\Valentin\AppData\Local\Temp\ccp81R2O.s 			page 6


 286              	.L29:
 287 0070 00000000 		.word	__stack_chk_guard
 288 0074 92DFA343 		.word	1134813074
 289              		.cfi_endproc
 290              	.LFE258:
 291              		.size	virage_gauche, .-virage_gauche
 292              		.section	.text.demi_tour,"ax",%progbits
 293              		.align	1
 294              		.p2align 4,,15
 295              		.global	demi_tour
 296              		.syntax unified
 297              		.thumb
 298              		.thumb_func
 299              		.fpu fpv4-sp-d16
 300              		.type	demi_tour, %function
 301              	demi_tour:
 302              	.LFB259:
 303              		.loc 1 34 0
 304              		.cfi_startproc
 305              		@ args = 0, pretend = 0, frame = 8
 306              		@ frame_needed = 0, uses_anonymous_args = 0
 307              	.LVL25:
 308 0000 70B5     		push	{r4, r5, r6, lr}
 309              		.cfi_def_cfa_offset 16
 310              		.cfi_offset 4, -16
 311              		.cfi_offset 5, -12
 312              		.cfi_offset 6, -8
 313              		.cfi_offset 14, -4
 314 0002 2DED028B 		vpush.64	{d8}
 315              		.cfi_def_cfa_offset 24
 316              		.cfi_offset 80, -24
 317              		.cfi_offset 81, -20
 318 0006 1A4E     		ldr	r6, .L40
 319              		.loc 1 37 0
 320 0008 9FED1A8A 		vldr.32	s16, .L40+4
 321              		.loc 1 34 0
 322 000c 3368     		ldr	r3, [r6]
 323 000e 82B0     		sub	sp, sp, #8
 324              		.cfi_def_cfa_offset 32
 325              		.loc 1 34 0
 326 0010 0446     		mov	r4, r0
 327              		.loc 1 35 0
 328 0012 0020     		movs	r0, #0
 329              	.LVL26:
 330              		.loc 1 34 0
 331 0014 0193     		str	r3, [sp, #4]
 332              		.loc 1 35 0
 333 0016 FFF7FEFF 		bl	right_motor_set_pos
 334              	.LVL27:
 335              		.loc 1 36 0
 336 001a 0020     		movs	r0, #0
 337              		.loc 1 39 0
 338 001c 6542     		negs	r5, r4
 339              		.loc 1 36 0
 340 001e FFF7FEFF 		bl	left_motor_set_pos
 341              	.LVL28:
 342              		.loc 1 37 0
ARM GAS  C:\Users\Valentin\AppData\Local\Temp\ccp81R2O.s 			page 7


 343 0022 10E0     		b	.L32
 344              	.L38:
 345              		.loc 1 37 0 is_stmt 0 discriminator 1
 346 0024 FFF7FEFF 		bl	right_motor_get_pos
 347              	.LVL29:
 348 0028 07EE900A 		vmov	s15, r0	@ int
 349 002c F8EEE77A 		vcvt.f32.s32	s15, s15
 350 0030 F4EEC87A 		vcmpe.f32	s15, s16
 351 0034 F1EE10FA 		vmrs	APSR_nzcv, FPSCR
 352 0038 10D5     		bpl	.L31
 353              		.loc 1 38 0 is_stmt 1
 354 003a 2046     		mov	r0, r4
 355 003c FFF7FEFF 		bl	right_motor_set_speed
 356              	.LVL30:
 357              		.loc 1 39 0
 358 0040 2846     		mov	r0, r5
 359 0042 FFF7FEFF 		bl	left_motor_set_speed
 360              	.LVL31:
 361              	.L32:
 362              		.loc 1 37 0
 363 0046 FFF7FEFF 		bl	left_motor_get_pos
 364              	.LVL32:
 365 004a 07EE900A 		vmov	s15, r0	@ int
 366 004e F8EEE77A 		vcvt.f32.s32	s15, s15
 367 0052 F4EEC87A 		vcmpe.f32	s15, s16
 368 0056 F1EE10FA 		vmrs	APSR_nzcv, FPSCR
 369 005a E3D4     		bmi	.L38
 370              	.L31:
 371              		.loc 1 41 0
 372 005c 019A     		ldr	r2, [sp, #4]
 373 005e 3368     		ldr	r3, [r6]
 374 0060 9A42     		cmp	r2, r3
 375 0062 03D1     		bne	.L39
 376 0064 02B0     		add	sp, sp, #8
 377              		.cfi_remember_state
 378              		.cfi_def_cfa_offset 24
 379              		@ sp needed
 380 0066 BDEC028B 		vldm	sp!, {d8}
 381              		.cfi_restore 80
 382              		.cfi_restore 81
 383              		.cfi_def_cfa_offset 16
 384 006a 70BD     		pop	{r4, r5, r6, pc}
 385              	.LVL33:
 386              	.L39:
 387              		.cfi_restore_state
 388 006c FFF7FEFF 		bl	__stack_chk_fail
 389              	.LVL34:
 390              	.L41:
 391              		.align	2
 392              	.L40:
 393 0070 00000000 		.word	__stack_chk_guard
 394 0074 92DF2344 		.word	1143201682
 395              		.cfi_endproc
 396              	.LFE259:
 397              		.size	demi_tour, .-demi_tour
 398              		.section	.text.spin,"ax",%progbits
 399              		.align	1
ARM GAS  C:\Users\Valentin\AppData\Local\Temp\ccp81R2O.s 			page 8


 400              		.p2align 4,,15
 401              		.global	spin
 402              		.syntax unified
 403              		.thumb
 404              		.thumb_func
 405              		.fpu fpv4-sp-d16
 406              		.type	spin, %function
 407              	spin:
 408              	.LFB260:
 409              		.loc 1 44 0
 410              		.cfi_startproc
 411              		@ args = 0, pretend = 0, frame = 8
 412              		@ frame_needed = 0, uses_anonymous_args = 0
 413              	.LVL35:
 414 0000 70B5     		push	{r4, r5, r6, lr}
 415              		.cfi_def_cfa_offset 16
 416              		.cfi_offset 4, -16
 417              		.cfi_offset 5, -12
 418              		.cfi_offset 6, -8
 419              		.cfi_offset 14, -4
 420 0002 2DED028B 		vpush.64	{d8}
 421              		.cfi_def_cfa_offset 24
 422              		.cfi_offset 80, -24
 423              		.cfi_offset 81, -20
 424 0006 1A4E     		ldr	r6, .L51
 425              		.loc 1 47 0
 426 0008 9FED1A8A 		vldr.32	s16, .L51+4
 427              		.loc 1 44 0
 428 000c 3368     		ldr	r3, [r6]
 429 000e 82B0     		sub	sp, sp, #8
 430              		.cfi_def_cfa_offset 32
 431              		.loc 1 44 0
 432 0010 0446     		mov	r4, r0
 433              		.loc 1 45 0
 434 0012 0020     		movs	r0, #0
 435              	.LVL36:
 436              		.loc 1 44 0
 437 0014 0193     		str	r3, [sp, #4]
 438              		.loc 1 45 0
 439 0016 FFF7FEFF 		bl	right_motor_set_pos
 440              	.LVL37:
 441              		.loc 1 46 0
 442 001a 0020     		movs	r0, #0
 443              		.loc 1 49 0
 444 001c 6542     		negs	r5, r4
 445              		.loc 1 46 0
 446 001e FFF7FEFF 		bl	left_motor_set_pos
 447              	.LVL38:
 448              		.loc 1 47 0
 449 0022 10E0     		b	.L43
 450              	.L49:
 451              		.loc 1 47 0 is_stmt 0 discriminator 1
 452 0024 FFF7FEFF 		bl	right_motor_get_pos
 453              	.LVL39:
 454 0028 07EE900A 		vmov	s15, r0	@ int
 455 002c F8EEE77A 		vcvt.f32.s32	s15, s15
 456 0030 F4EEC87A 		vcmpe.f32	s15, s16
ARM GAS  C:\Users\Valentin\AppData\Local\Temp\ccp81R2O.s 			page 9


 457 0034 F1EE10FA 		vmrs	APSR_nzcv, FPSCR
 458 0038 10D5     		bpl	.L42
 459              		.loc 1 48 0 is_stmt 1
 460 003a 2046     		mov	r0, r4
 461 003c FFF7FEFF 		bl	right_motor_set_speed
 462              	.LVL40:
 463              		.loc 1 49 0
 464 0040 2846     		mov	r0, r5
 465 0042 FFF7FEFF 		bl	left_motor_set_speed
 466              	.LVL41:
 467              	.L43:
 468              		.loc 1 47 0
 469 0046 FFF7FEFF 		bl	left_motor_get_pos
 470              	.LVL42:
 471 004a 07EE900A 		vmov	s15, r0	@ int
 472 004e F8EEE77A 		vcvt.f32.s32	s15, s15
 473 0052 F4EEC87A 		vcmpe.f32	s15, s16
 474 0056 F1EE10FA 		vmrs	APSR_nzcv, FPSCR
 475 005a E3D4     		bmi	.L49
 476              	.L42:
 477              		.loc 1 51 0
 478 005c 019A     		ldr	r2, [sp, #4]
 479 005e 3368     		ldr	r3, [r6]
 480 0060 9A42     		cmp	r2, r3
 481 0062 03D1     		bne	.L50
 482 0064 02B0     		add	sp, sp, #8
 483              		.cfi_remember_state
 484              		.cfi_def_cfa_offset 24
 485              		@ sp needed
 486 0066 BDEC028B 		vldm	sp!, {d8}
 487              		.cfi_restore 80
 488              		.cfi_restore 81
 489              		.cfi_def_cfa_offset 16
 490 006a 70BD     		pop	{r4, r5, r6, pc}
 491              	.LVL43:
 492              	.L50:
 493              		.cfi_restore_state
 494 006c FFF7FEFF 		bl	__stack_chk_fail
 495              	.LVL44:
 496              	.L52:
 497              		.align	2
 498              	.L51:
 499 0070 00000000 		.word	__stack_chk_guard
 500 0074 92DFA344 		.word	1151590290
 501              		.cfi_endproc
 502              	.LFE260:
 503              		.size	spin, .-spin
 504              		.text
 505              	.Letext0:
 506              		.file 2 "c:\\users\\valentin\\desktop\\eclipse_e-puck2\\tools\\gcc-arm-none-eabi-7-2017-q4-major-w
 507              		.file 3 "c:\\users\\valentin\\desktop\\eclipse_e-puck2\\tools\\gcc-arm-none-eabi-7-2017-q4-major-w
 508              		.file 4 "c:\\users\\valentin\\desktop\\eclipse_e-puck2\\tools\\gcc-arm-none-eabi-7-2017-q4-major-w
 509              		.file 5 "../e-puck2_main-processor/ChibiOS//os/rt/ports/ARMCMx/compilers/GCC/chtypes.h"
 510              		.file 6 "../e-puck2_main-processor/ChibiOS//os/rt/include/chsystypes.h"
 511              		.file 7 "../e-puck2_main-processor/ChibiOS//os/rt/include/chschd.h"
 512              		.file 8 "../e-puck2_main-processor/ChibiOS//os/ext/CMSIS/include/core_cm4.h"
 513              		.file 9 "../e-puck2_main-processor/ChibiOS//os/ext/CMSIS/ST/system_stm32f4xx.h"
ARM GAS  C:\Users\Valentin\AppData\Local\Temp\ccp81R2O.s 			page 10


 514              		.file 10 "../e-puck2_main-processor/ChibiOS//os/ext/CMSIS/ST/stm32f407xx.h"
 515              		.file 11 "../e-puck2_main-processor/ChibiOS//os/rt/ports/ARMCMx/chcore.h"
 516              		.file 12 "../e-puck2_main-processor/ChibiOS//os/rt/ports/ARMCMx/chcore_v7m.h"
 517              		.file 13 "../e-puck2_main-processor/ChibiOS//os/rt/include/chdebug.h"
 518              		.file 14 "../e-puck2_main-processor/ChibiOS//os/rt/include/chtm.h"
 519              		.file 15 "../e-puck2_main-processor/ChibiOS//os/rt/include/chstats.h"
 520              		.file 16 "../e-puck2_main-processor/ChibiOS//os/rt/include/chsem.h"
 521              		.file 17 "../e-puck2_main-processor/ChibiOS//os/rt/include/chmtx.h"
 522              		.file 18 "../e-puck2_main-processor/ChibiOS//os/rt/include/chregistry.h"
 523              		.file 19 "../e-puck2_main-processor/ChibiOS//os/rt/include/chevents.h"
 524              		.file 20 "../e-puck2_main-processor/ChibiOS//os/rt/include/chqueues.h"
 525              		.file 21 "../e-puck2_main-processor/ChibiOS//os/hal/ports/STM32/STM32F4xx/stm32_dma.h"
 526              		.file 22 "../e-puck2_main-processor/ChibiOS//os/hal/include/hal_ioblock.h"
 527              		.file 23 "../e-puck2_main-processor/ChibiOS//os/hal/ports/STM32/LLD/GPIOv2/pal_lld.h"
 528              		.file 24 "../e-puck2_main-processor/ChibiOS//os/hal/include/adc.h"
 529              		.file 25 "../e-puck2_main-processor/ChibiOS//os/hal/ports/STM32/STM32F4xx/adc_lld.h"
 530              		.file 26 "../e-puck2_main-processor/ChibiOS//os/hal/include/can.h"
 531              		.file 27 "../e-puck2_main-processor/ChibiOS//os/hal/ports/STM32/LLD/can_lld.h"
 532              		.file 28 "../e-puck2_main-processor/ChibiOS//os/hal/include/dac.h"
 533              		.file 29 "../e-puck2_main-processor/ChibiOS//os/hal/ports/STM32/LLD/DACv1/dac_lld.h"
 534              		.file 30 "../e-puck2_main-processor/ChibiOS//os/hal/include/ext.h"
 535              		.file 31 "../e-puck2_main-processor/ChibiOS//os/hal/ports/STM32/LLD/ext_lld.h"
 536              		.file 32 "../e-puck2_main-processor/ChibiOS//os/hal/include/gpt.h"
 537              		.file 33 "../e-puck2_main-processor/ChibiOS//os/hal/ports/STM32/LLD/TIMv1/gpt_lld.h"
 538              		.file 34 "../e-puck2_main-processor/ChibiOS//os/hal/ports/STM32/LLD/TIMv1/stm32_tim.h"
 539              		.file 35 "../e-puck2_main-processor/ChibiOS//os/hal/include/i2c.h"
 540              		.file 36 "../e-puck2_main-processor/ChibiOS//os/hal/ports/STM32/LLD/I2Cv1/i2c_lld.h"
 541              		.file 37 "../e-puck2_main-processor/ChibiOS//os/hal/include/i2s.h"
 542              		.file 38 "../e-puck2_main-processor/ChibiOS//os/hal/ports/STM32/LLD/SPIv1/i2s_lld.h"
 543              		.file 39 "../e-puck2_main-processor/ChibiOS//os/hal/include/pwm.h"
 544              		.file 40 "../e-puck2_main-processor/ChibiOS//os/hal/ports/STM32/LLD/TIMv1/pwm_lld.h"
 545              		.file 41 "../e-puck2_main-processor/ChibiOS//os/hal/include/serial.h"
 546              		.file 42 "../e-puck2_main-processor/ChibiOS//os/hal/ports/STM32/LLD/USARTv1/serial_lld.h"
 547              		.file 43 "../e-puck2_main-processor/ChibiOS//os/hal/include/sdc.h"
 548              		.file 44 "../e-puck2_main-processor/ChibiOS//os/hal/ports/STM32/LLD/sdc_lld.h"
 549              		.file 45 "../e-puck2_main-processor/ChibiOS//os/hal/include/spi.h"
 550              		.file 46 "../e-puck2_main-processor/ChibiOS//os/hal/ports/STM32/LLD/SPIv1/spi_lld.h"
 551              		.file 47 "../e-puck2_main-processor/ChibiOS//os/hal/include/usb.h"
 552              		.file 48 "../e-puck2_main-processor/ChibiOS//os/hal/ports/STM32/LLD/OTGv1/usb_lld.h"
 553              		.file 49 "../e-puck2_main-processor/ChibiOS//os/hal/ports/STM32/LLD/OTGv1/stm32_otg.h"
 554              		.file 50 "../e-puck2_main-processor/src/motors.h"