ARM GAS  C:\Users\Valentin\AppData\Local\Temp\cczt6AAz.s 			page 1


   1              		.cpu cortex-m4
   2              		.eabi_attribute 27, 1
   3              		.eabi_attribute 28, 1
   4              		.eabi_attribute 20, 1
   5              		.eabi_attribute 21, 1
   6              		.eabi_attribute 23, 3
   7              		.eabi_attribute 24, 1
   8              		.eabi_attribute 25, 1
   9              		.eabi_attribute 26, 1
  10              		.eabi_attribute 30, 2
  11              		.eabi_attribute 34, 1
  12              		.eabi_attribute 18, 4
  13              		.file	"test.c"
  14              		.text
  15              	.Ltext0:
  16              		.cfi_sections	.debug_frame
  17              		.section	.text.tmr,"ax",%progbits
  18              		.align	1
  19              		.p2align 4,,15
  20              		.syntax unified
  21              		.thumb
  22              		.thumb_func
  23              		.fpu fpv4-sp-d16
  24              		.type	tmr, %function
  25              	tmr:
  26              	.LFB270:
  27              		.file 1 "../e-puck2_main-processor/ChibiOS//test/rt/test.c"
  28              		.loc 1 264 0
  29              		.cfi_startproc
  30              		@ args = 0, pretend = 0, frame = 8
  31              		@ frame_needed = 0, uses_anonymous_args = 0
  32              	.LVL0:
  33 0000 00B5     		push	{lr}
  34              		.cfi_def_cfa_offset 4
  35              		.cfi_offset 14, -4
  36 0002 084B     		ldr	r3, .L6
  37              		.loc 1 267 0
  38 0004 0849     		ldr	r1, .L6+4
  39              		.loc 1 264 0
  40 0006 1A68     		ldr	r2, [r3]
  41 0008 83B0     		sub	sp, sp, #12
  42              		.cfi_def_cfa_offset 16
  43              		.loc 1 267 0
  44 000a 0120     		movs	r0, #1
  45              	.LVL1:
  46              		.loc 1 264 0
  47 000c 0192     		str	r2, [sp, #4]
  48              		.loc 1 268 0
  49 000e 019A     		ldr	r2, [sp, #4]
  50 0010 1B68     		ldr	r3, [r3]
  51              		.loc 1 267 0
  52 0012 0870     		strb	r0, [r1]
  53              		.loc 1 268 0
  54 0014 9A42     		cmp	r2, r3
  55 0016 02D1     		bne	.L5
  56 0018 03B0     		add	sp, sp, #12
  57              		.cfi_remember_state
ARM GAS  C:\Users\Valentin\AppData\Local\Temp\cczt6AAz.s 			page 2


  58              		.cfi_def_cfa_offset 4
  59              		@ sp needed
  60 001a 5DF804FB 		ldr	pc, [sp], #4
  61              	.L5:
  62              		.cfi_restore_state
  63 001e FFF7FEFF 		bl	__stack_chk_fail
  64              	.LVL2:
  65              	.L7:
  66 0022 00BF     		.align	2
  67              	.L6:
  68 0024 00000000 		.word	__stack_chk_guard
  69 0028 00000000 		.word	.LANCHOR0
  70              		.cfi_endproc
  71              	.LFE270:
  72              		.size	tmr, .-tmr
  73              		.section	.text.print_line,"ax",%progbits
  74              		.align	1
  75              		.p2align 4,,15
  76              		.syntax unified
  77              		.thumb
  78              		.thumb_func
  79              		.fpu fpv4-sp-d16
  80              		.type	print_line, %function
  81              	print_line:
  82              	.LFB273:
  83              		.loc 1 303 0
  84              		.cfi_startproc
  85              		@ args = 0, pretend = 0, frame = 8
  86              		@ frame_needed = 0, uses_anonymous_args = 0
  87 0000 70B5     		push	{r4, r5, r6, lr}
  88              		.cfi_def_cfa_offset 16
  89              		.cfi_offset 4, -16
  90              		.cfi_offset 5, -12
  91              		.cfi_offset 6, -8
  92              		.cfi_offset 14, -4
  93 0002 0E4E     		ldr	r6, .L15
  94 0004 0E4D     		ldr	r5, .L15+4
  95 0006 3368     		ldr	r3, [r6]
  96 0008 82B0     		sub	sp, sp, #8
  97              		.cfi_def_cfa_offset 24
  98              		.loc 1 303 0
  99 000a 4C24     		movs	r4, #76
 100 000c 0193     		str	r3, [sp, #4]
 101              	.LVL3:
 102              	.L9:
 103              		.loc 1 307 0 discriminator 3
 104 000e 2868     		ldr	r0, [r5]
 105 0010 0368     		ldr	r3, [r0]
 106 0012 2D21     		movs	r1, #45
 107 0014 9B68     		ldr	r3, [r3, #8]
 108 0016 9847     		blx	r3
 109              	.LVL4:
 110              		.loc 1 306 0 discriminator 3
 111 0018 013C     		subs	r4, r4, #1
 112              	.LVL5:
 113 001a F8D1     		bne	.L9
 114              		.loc 1 308 0
ARM GAS  C:\Users\Valentin\AppData\Local\Temp\cczt6AAz.s 			page 3


 115 001c 019A     		ldr	r2, [sp, #4]
 116 001e 3368     		ldr	r3, [r6]
 117 0020 2868     		ldr	r0, [r5]
 118 0022 9A42     		cmp	r2, r3
 119 0024 07D1     		bne	.L14
 120 0026 0368     		ldr	r3, [r0]
 121 0028 0649     		ldr	r1, .L15+8
 122 002a 1B68     		ldr	r3, [r3]
 123 002c 0222     		movs	r2, #2
 124              		.loc 1 309 0
 125 002e 02B0     		add	sp, sp, #8
 126              		.cfi_remember_state
 127              		.cfi_def_cfa_offset 16
 128              		@ sp needed
 129 0030 BDE87040 		pop	{r4, r5, r6, lr}
 130              		.cfi_restore 14
 131              		.cfi_restore 6
 132              		.cfi_restore 5
 133              		.cfi_restore 4
 134              		.cfi_def_cfa_offset 0
 135              	.LVL6:
 136              		.loc 1 308 0
 137 0034 1847     		bx	r3
 138              	.LVL7:
 139              	.L14:
 140              		.cfi_restore_state
 141 0036 FFF7FEFF 		bl	__stack_chk_fail
 142              	.LVL8:
 143              	.L16:
 144 003a 00BF     		.align	2
 145              	.L15:
 146 003c 00000000 		.word	__stack_chk_guard
 147 0040 00000000 		.word	.LANCHOR1
 148 0044 00000000 		.word	.LC0
 149              		.cfi_endproc
 150              	.LFE273:
 151              		.size	print_line, .-print_line
 152              		.section	.text.test_printn,"ax",%progbits
 153              		.align	1
 154              		.p2align 4,,15
 155              		.global	test_printn
 156              		.syntax unified
 157              		.thumb
 158              		.thumb_func
 159              		.fpu fpv4-sp-d16
 160              		.type	test_printn, %function
 161              	test_printn:
 162              	.LFB256:
 163              		.loc 1 94 0
 164              		.cfi_startproc
 165              		@ args = 0, pretend = 0, frame = 24
 166              		@ frame_needed = 0, uses_anonymous_args = 0
 167              	.LVL9:
 168 0000 F0B5     		push	{r4, r5, r6, r7, lr}
 169              		.cfi_def_cfa_offset 20
 170              		.cfi_offset 4, -20
 171              		.cfi_offset 5, -16
ARM GAS  C:\Users\Valentin\AppData\Local\Temp\cczt6AAz.s 			page 4


 172              		.cfi_offset 6, -12
 173              		.cfi_offset 7, -8
 174              		.cfi_offset 14, -4
 175 0002 1D4E     		ldr	r6, .L30
 176 0004 87B0     		sub	sp, sp, #28
 177              		.cfi_def_cfa_offset 48
 178              		.loc 1 94 0
 179 0006 3368     		ldr	r3, [r6]
 180 0008 0593     		str	r3, [sp, #20]
 181              		.loc 1 97 0
 182 000a 60B9     		cbnz	r0, .L28
 183              		.loc 1 98 0
 184 000c 059A     		ldr	r2, [sp, #20]
 185 000e 3368     		ldr	r3, [r6]
 186 0010 1A49     		ldr	r1, .L30+4
 187 0012 9A42     		cmp	r2, r3
 188 0014 0868     		ldr	r0, [r1]
 189              	.LVL10:
 190 0016 2DD1     		bne	.L27
 191 0018 0368     		ldr	r3, [r0]
 192 001a 9B68     		ldr	r3, [r3, #8]
 193 001c 3021     		movs	r1, #48
 194              		.loc 1 106 0
 195 001e 07B0     		add	sp, sp, #28
 196              		.cfi_remember_state
 197              		.cfi_def_cfa_offset 20
 198              		@ sp needed
 199 0020 BDE8F040 		pop	{r4, r5, r6, r7, lr}
 200              		.cfi_restore 14
 201              		.cfi_restore 7
 202              		.cfi_restore 6
 203              		.cfi_restore 5
 204              		.cfi_restore 4
 205              		.cfi_def_cfa_offset 0
 206              		.loc 1 98 0
 207 0024 1847     		bx	r3
 208              	.LVL11:
 209              	.L28:
 210              		.cfi_restore_state
 211              	.LBB124:
 212              	.LBB125:
 213              		.loc 1 100 0
 214 0026 01AD     		add	r5, sp, #4
 215 0028 2C46     		mov	r4, r5
 216              		.loc 1 102 0
 217 002a 154F     		ldr	r7, .L30+8
 218 002c 00E0     		b	.L19
 219              	.LVL12:
 220              	.L25:
 221              		.loc 1 101 0
 222 002e 1446     		mov	r4, r2
 223              	.LVL13:
 224              	.L19:
 225              		.loc 1 102 0
 226 0030 A7FB0023 		umull	r2, r3, r7, r0
 227 0034 DB08     		lsrs	r3, r3, #3
 228 0036 03EB8301 		add	r1, r3, r3, lsl #2
ARM GAS  C:\Users\Valentin\AppData\Local\Temp\cczt6AAz.s 			page 5


 229 003a A0EB4100 		sub	r0, r0, r1, lsl #1
 230              	.LVL14:
 231 003e 00F13001 		add	r1, r0, #48
 232 0042 2246     		mov	r2, r4
 233              	.LVL15:
 234 0044 C9B2     		uxtb	r1, r1
 235 0046 02F8011B 		strb	r1, [r2], #1
 236              	.LVL16:
 237              		.loc 1 101 0
 238 004a 1846     		mov	r0, r3
 239 004c 002B     		cmp	r3, #0
 240 004e EED1     		bne	.L25
 241              		.loc 1 103 0
 242 0050 AA42     		cmp	r2, r5
 243 0052 09D9     		bls	.L17
 244 0054 094F     		ldr	r7, .L30+4
 245 0056 01E0     		b	.L21
 246              	.LVL17:
 247              	.L29:
 248 0058 14F8011D 		ldrb	r1, [r4, #-1]!	@ zero_extendqisi2
 249              	.LVL18:
 250              	.L21:
 251              		.loc 1 104 0
 252 005c 3868     		ldr	r0, [r7]
 253              	.LVL19:
 254 005e 0368     		ldr	r3, [r0]
 255 0060 9B68     		ldr	r3, [r3, #8]
 256 0062 9847     		blx	r3
 257              	.LVL20:
 258              		.loc 1 103 0
 259 0064 A542     		cmp	r5, r4
 260 0066 F7D1     		bne	.L29
 261              	.LVL21:
 262              	.L17:
 263              	.LBE125:
 264              	.LBE124:
 265              		.loc 1 106 0
 266 0068 059A     		ldr	r2, [sp, #20]
 267 006a 3368     		ldr	r3, [r6]
 268 006c 9A42     		cmp	r2, r3
 269 006e 01D1     		bne	.L27
 270 0070 07B0     		add	sp, sp, #28
 271              		.cfi_remember_state
 272              		.cfi_def_cfa_offset 20
 273              		@ sp needed
 274 0072 F0BD     		pop	{r4, r5, r6, r7, pc}
 275              	.L27:
 276              		.cfi_restore_state
 277 0074 FFF7FEFF 		bl	__stack_chk_fail
 278              	.LVL22:
 279              	.L31:
 280              		.align	2
 281              	.L30:
 282 0078 00000000 		.word	__stack_chk_guard
 283 007c 00000000 		.word	.LANCHOR1
 284 0080 CDCCCCCC 		.word	-858993459
 285              		.cfi_endproc
ARM GAS  C:\Users\Valentin\AppData\Local\Temp\cczt6AAz.s 			page 6


 286              	.LFE256:
 287              		.size	test_printn, .-test_printn
 288              		.section	.text.test_print,"ax",%progbits
 289              		.align	1
 290              		.p2align 4,,15
 291              		.global	test_print
 292              		.syntax unified
 293              		.thumb
 294              		.thumb_func
 295              		.fpu fpv4-sp-d16
 296              		.type	test_print, %function
 297              	test_print:
 298              	.LFB257:
 299              		.loc 1 113 0
 300              		.cfi_startproc
 301              		@ args = 0, pretend = 0, frame = 8
 302              		@ frame_needed = 0, uses_anonymous_args = 0
 303              	.LVL23:
 304 0000 70B5     		push	{r4, r5, r6, lr}
 305              		.cfi_def_cfa_offset 16
 306              		.cfi_offset 4, -16
 307              		.cfi_offset 5, -12
 308              		.cfi_offset 6, -8
 309              		.cfi_offset 14, -4
 310 0002 0C4E     		ldr	r6, .L42
 311              		.loc 1 115 0
 312 0004 0178     		ldrb	r1, [r0]	@ zero_extendqisi2
 313              		.loc 1 113 0
 314 0006 3368     		ldr	r3, [r6]
 315 0008 82B0     		sub	sp, sp, #8
 316              		.cfi_def_cfa_offset 24
 317              		.loc 1 113 0
 318 000a 0193     		str	r3, [sp, #4]
 319              		.loc 1 115 0
 320 000c 49B1     		cbz	r1, .L32
 321 000e 0A4D     		ldr	r5, .L42+4
 322 0010 0446     		mov	r4, r0
 323              	.LVL24:
 324              	.L34:
 325              		.loc 1 116 0
 326 0012 2868     		ldr	r0, [r5]
 327 0014 0368     		ldr	r3, [r0]
 328 0016 9B68     		ldr	r3, [r3, #8]
 329 0018 9847     		blx	r3
 330              	.LVL25:
 331              		.loc 1 115 0
 332 001a 14F8011F 		ldrb	r1, [r4, #1]!	@ zero_extendqisi2
 333              	.LVL26:
 334 001e 0029     		cmp	r1, #0
 335 0020 F7D1     		bne	.L34
 336              	.LVL27:
 337              	.L32:
 338              		.loc 1 117 0
 339 0022 019A     		ldr	r2, [sp, #4]
 340 0024 3368     		ldr	r3, [r6]
 341 0026 9A42     		cmp	r2, r3
 342 0028 01D1     		bne	.L41
ARM GAS  C:\Users\Valentin\AppData\Local\Temp\cczt6AAz.s 			page 7


 343 002a 02B0     		add	sp, sp, #8
 344              		.cfi_remember_state
 345              		.cfi_def_cfa_offset 16
 346              		@ sp needed
 347 002c 70BD     		pop	{r4, r5, r6, pc}
 348              	.L41:
 349              		.cfi_restore_state
 350 002e FFF7FEFF 		bl	__stack_chk_fail
 351              	.LVL28:
 352              	.L43:
 353 0032 00BF     		.align	2
 354              	.L42:
 355 0034 00000000 		.word	__stack_chk_guard
 356 0038 00000000 		.word	.LANCHOR1
 357              		.cfi_endproc
 358              	.LFE257:
 359              		.size	test_print, .-test_print
 360              		.section	.text.test_println,"ax",%progbits
 361              		.align	1
 362              		.p2align 4,,15
 363              		.global	test_println
 364              		.syntax unified
 365              		.thumb
 366              		.thumb_func
 367              		.fpu fpv4-sp-d16
 368              		.type	test_println, %function
 369              	test_println:
 370              	.LFB258:
 371              		.loc 1 124 0
 372              		.cfi_startproc
 373              		@ args = 0, pretend = 0, frame = 8
 374              		@ frame_needed = 0, uses_anonymous_args = 0
 375              	.LVL29:
 376 0000 70B5     		push	{r4, r5, r6, lr}
 377              		.cfi_def_cfa_offset 16
 378              		.cfi_offset 4, -16
 379              		.cfi_offset 5, -12
 380              		.cfi_offset 6, -8
 381              		.cfi_offset 14, -4
 382 0002 104E     		ldr	r6, .L56
 383              	.LBB126:
 384              	.LBB127:
 385              		.loc 1 115 0
 386 0004 0178     		ldrb	r1, [r0]	@ zero_extendqisi2
 387              	.LBE127:
 388              	.LBE126:
 389              		.loc 1 124 0
 390 0006 3368     		ldr	r3, [r6]
 391 0008 82B0     		sub	sp, sp, #8
 392              		.cfi_def_cfa_offset 24
 393              		.loc 1 124 0
 394 000a 0193     		str	r3, [sp, #4]
 395              	.LVL30:
 396              	.LBB129:
 397              	.LBB128:
 398              		.loc 1 115 0
 399 000c B1B1     		cbz	r1, .L54
ARM GAS  C:\Users\Valentin\AppData\Local\Temp\cczt6AAz.s 			page 8


 400 000e 0E4D     		ldr	r5, .L56+4
 401 0010 0446     		mov	r4, r0
 402              	.LVL31:
 403              	.L46:
 404              		.loc 1 116 0
 405 0012 2868     		ldr	r0, [r5]
 406 0014 0368     		ldr	r3, [r0]
 407 0016 9B68     		ldr	r3, [r3, #8]
 408 0018 9847     		blx	r3
 409              	.LVL32:
 410              		.loc 1 115 0
 411 001a 14F8011F 		ldrb	r1, [r4, #1]!	@ zero_extendqisi2
 412              	.LVL33:
 413 001e 0029     		cmp	r1, #0
 414 0020 F7D1     		bne	.L46
 415              	.LVL34:
 416              	.L45:
 417              	.LBE128:
 418              	.LBE129:
 419              		.loc 1 127 0
 420 0022 019A     		ldr	r2, [sp, #4]
 421 0024 3368     		ldr	r3, [r6]
 422 0026 2868     		ldr	r0, [r5]
 423 0028 9A42     		cmp	r2, r3
 424 002a 09D1     		bne	.L55
 425 002c 0368     		ldr	r3, [r0]
 426 002e 0749     		ldr	r1, .L56+8
 427 0030 1B68     		ldr	r3, [r3]
 428 0032 0222     		movs	r2, #2
 429              		.loc 1 128 0
 430 0034 02B0     		add	sp, sp, #8
 431              		.cfi_remember_state
 432              		.cfi_def_cfa_offset 16
 433              		@ sp needed
 434 0036 BDE87040 		pop	{r4, r5, r6, lr}
 435              		.cfi_restore 14
 436              		.cfi_restore 6
 437              		.cfi_restore 5
 438              		.cfi_restore 4
 439              		.cfi_def_cfa_offset 0
 440              		.loc 1 127 0
 441 003a 1847     		bx	r3
 442              	.LVL35:
 443              	.L54:
 444              		.cfi_restore_state
 445 003c 024D     		ldr	r5, .L56+4
 446 003e F0E7     		b	.L45
 447              	.LVL36:
 448              	.L55:
 449 0040 FFF7FEFF 		bl	__stack_chk_fail
 450              	.LVL37:
 451              	.L57:
 452              		.align	2
 453              	.L56:
 454 0044 00000000 		.word	__stack_chk_guard
 455 0048 00000000 		.word	.LANCHOR1
 456 004c 00000000 		.word	.LC0
ARM GAS  C:\Users\Valentin\AppData\Local\Temp\cczt6AAz.s 			page 9


 457              		.cfi_endproc
 458              	.LFE258:
 459              		.size	test_println, .-test_println
 460              		.section	.text.test_emit_token,"ax",%progbits
 461              		.align	1
 462              		.p2align 4,,15
 463              		.global	test_emit_token
 464              		.syntax unified
 465              		.thumb
 466              		.thumb_func
 467              		.fpu fpv4-sp-d16
 468              		.type	test_emit_token, %function
 469              	test_emit_token:
 470              	.LFB261:
 471              		.loc 1 150 0
 472              		.cfi_startproc
 473              		@ args = 0, pretend = 0, frame = 8
 474              		@ frame_needed = 0, uses_anonymous_args = 0
 475              	.LVL38:
 476 0000 30B5     		push	{r4, r5, lr}
 477              		.cfi_def_cfa_offset 12
 478              		.cfi_offset 4, -12
 479              		.cfi_offset 5, -8
 480              		.cfi_offset 14, -4
 481 0002 164C     		ldr	r4, .L64
 482 0004 83B0     		sub	sp, sp, #12
 483              		.cfi_def_cfa_offset 24
 484              		.loc 1 150 0
 485 0006 2368     		ldr	r3, [r4]
 486 0008 0193     		str	r3, [sp, #4]
 487              	.LVL39:
 488 000a 0546     		mov	r5, r0
 489              	.LBB140:
 490              	.LBB141:
 491              	.LBB142:
 492              	.LBB143:
 493              	.LBB144:
 494              		.file 2 "../e-puck2_main-processor/ChibiOS//os/ext/CMSIS/include/core_cmFunc.h"
 495              		.loc 2 546 0
 496 000c 2023     		movs	r3, #32
 497              		.syntax unified
 498              	@ 546 "../e-puck2_main-processor/ChibiOS//os/ext/CMSIS/include/core_cmFunc.h" 1
 499 000e 83F31188 		MSR basepri, r3
 500              	@ 0 "" 2
 501              	.LVL40:
 502              		.thumb
 503              		.syntax unified
 504              	.LBE144:
 505              	.LBE143:
 506              	.LBE142:
 507              		.file 3 "../e-puck2_main-processor/ChibiOS//os/rt/include/chsys.h"
 508              		.loc 3 349 0
 509 0012 FFF7FEFF 		bl	_stats_start_measure_crit_thd
 510              	.LVL41:
 511              		.loc 3 350 0
 512 0016 FFF7FEFF 		bl	_dbg_check_lock
 513              	.LVL42:
ARM GAS  C:\Users\Valentin\AppData\Local\Temp\cczt6AAz.s 			page 10


 514              	.LBE141:
 515              	.LBE140:
 516              		.loc 1 153 0
 517 001a 114A     		ldr	r2, .L64+4
 518 001c 1368     		ldr	r3, [r2]
 519 001e 1D70     		strb	r5, [r3]
 520 0020 0133     		adds	r3, r3, #1
 521 0022 1360     		str	r3, [r2]
 522              	.LBB145:
 523              	.LBB146:
 524              		.loc 3 360 0
 525 0024 FFF7FEFF 		bl	_dbg_check_unlock
 526              	.LVL43:
 527              		.loc 3 361 0
 528 0028 FFF7FEFF 		bl	_stats_stop_measure_crit_thd
 529              	.LVL44:
 530              		.loc 3 367 0
 531 002c 0D4B     		ldr	r3, .L64+8
 532 002e 1A68     		ldr	r2, [r3]
 533 0030 9A42     		cmp	r2, r3
 534 0032 04D0     		beq	.L59
 535 0034 9969     		ldr	r1, [r3, #24]
 536 0036 9368     		ldr	r3, [r2, #8]
 537 0038 8A68     		ldr	r2, [r1, #8]
 538 003a 9A42     		cmp	r2, r3
 539 003c 08D3     		bcc	.L62
 540              	.L59:
 541              	.LVL45:
 542              	.LBB147:
 543              	.LBB148:
 544              	.LBB149:
 545              		.loc 2 546 0
 546 003e 0023     		movs	r3, #0
 547              		.syntax unified
 548              	@ 546 "../e-puck2_main-processor/ChibiOS//os/ext/CMSIS/include/core_cmFunc.h" 1
 549 0040 83F31188 		MSR basepri, r3
 550              	@ 0 "" 2
 551              	.LVL46:
 552              		.thumb
 553              		.syntax unified
 554              	.LBE149:
 555              	.LBE148:
 556              	.LBE147:
 557              	.LBE146:
 558              	.LBE145:
 559              		.loc 1 155 0
 560 0044 019A     		ldr	r2, [sp, #4]
 561 0046 2368     		ldr	r3, [r4]
 562 0048 9A42     		cmp	r2, r3
 563 004a 05D1     		bne	.L63
 564 004c 03B0     		add	sp, sp, #12
 565              		.cfi_remember_state
 566              		.cfi_def_cfa_offset 12
 567              		@ sp needed
 568 004e 30BD     		pop	{r4, r5, pc}
 569              	.L62:
 570              		.cfi_restore_state
ARM GAS  C:\Users\Valentin\AppData\Local\Temp\cczt6AAz.s 			page 11


 571              	.LBB151:
 572              	.LBB150:
 573              		.loc 3 367 0
 574 0050 0548     		ldr	r0, .L64+12
 575 0052 FFF7FEFF 		bl	chSysHalt
 576              	.LVL47:
 577 0056 F2E7     		b	.L59
 578              	.L63:
 579              	.LBE150:
 580              	.LBE151:
 581              		.loc 1 155 0
 582 0058 FFF7FEFF 		bl	__stack_chk_fail
 583              	.LVL48:
 584              	.L65:
 585              		.align	2
 586              	.L64:
 587 005c 00000000 		.word	__stack_chk_guard
 588 0060 00000000 		.word	.LANCHOR2
 589 0064 00000000 		.word	ch
 590 0068 00000000 		.word	.LANCHOR3
 591              		.cfi_endproc
 592              	.LFE261:
 593              		.size	test_emit_token, .-test_emit_token
 594              		.section	.text._test_fail,"ax",%progbits
 595              		.align	1
 596              		.p2align 4,,15
 597              		.global	_test_fail
 598              		.syntax unified
 599              		.thumb
 600              		.thumb_func
 601              		.fpu fpv4-sp-d16
 602              		.type	_test_fail, %function
 603              	_test_fail:
 604              	.LFB262:
 605              		.loc 1 160 0
 606              		.cfi_startproc
 607              		@ args = 0, pretend = 0, frame = 8
 608              		@ frame_needed = 0, uses_anonymous_args = 0
 609              	.LVL49:
 610 0000 30B5     		push	{r4, r5, lr}
 611              		.cfi_def_cfa_offset 12
 612              		.cfi_offset 4, -12
 613              		.cfi_offset 5, -8
 614              		.cfi_offset 14, -4
 615 0002 094B     		ldr	r3, .L70
 616              		.loc 1 164 0
 617 0004 094D     		ldr	r5, .L70+4
 618              		.loc 1 160 0
 619 0006 1A68     		ldr	r2, [r3]
 620              		.loc 1 162 0
 621 0008 094C     		ldr	r4, .L70+8
 622              		.loc 1 163 0
 623 000a 0A49     		ldr	r1, .L70+12
 624              		.loc 1 164 0
 625 000c 2860     		str	r0, [r5]
 626              		.loc 1 160 0
 627 000e 83B0     		sub	sp, sp, #12
ARM GAS  C:\Users\Valentin\AppData\Local\Temp\cczt6AAz.s 			page 12


 628              		.cfi_def_cfa_offset 24
 629              		.loc 1 162 0
 630 0010 0120     		movs	r0, #1
 631              	.LVL50:
 632              		.loc 1 160 0
 633 0012 0192     		str	r2, [sp, #4]
 634              		.loc 1 166 0
 635 0014 019A     		ldr	r2, [sp, #4]
 636 0016 1B68     		ldr	r3, [r3]
 637              		.loc 1 162 0
 638 0018 2070     		strb	r0, [r4]
 639              		.loc 1 166 0
 640 001a 9A42     		cmp	r2, r3
 641              		.loc 1 163 0
 642 001c 0870     		strb	r0, [r1]
 643              		.loc 1 166 0
 644 001e 01D1     		bne	.L69
 645 0020 03B0     		add	sp, sp, #12
 646              		.cfi_remember_state
 647              		.cfi_def_cfa_offset 12
 648              		@ sp needed
 649 0022 30BD     		pop	{r4, r5, pc}
 650              	.L69:
 651              		.cfi_restore_state
 652 0024 FFF7FEFF 		bl	__stack_chk_fail
 653              	.LVL51:
 654              	.L71:
 655              		.align	2
 656              	.L70:
 657 0028 00000000 		.word	__stack_chk_guard
 658 002c 00000000 		.word	.LANCHOR6
 659 0030 00000000 		.word	.LANCHOR4
 660 0034 00000000 		.word	.LANCHOR5
 661              		.cfi_endproc
 662              	.LFE262:
 663              		.size	_test_fail, .-_test_fail
 664              		.section	.text._test_assert,"ax",%progbits
 665              		.align	1
 666              		.p2align 4,,15
 667              		.global	_test_assert
 668              		.syntax unified
 669              		.thumb
 670              		.thumb_func
 671              		.fpu fpv4-sp-d16
 672              		.type	_test_assert, %function
 673              	_test_assert:
 674              	.LFB263:
 675              		.loc 1 168 0
 676              		.cfi_startproc
 677              		@ args = 0, pretend = 0, frame = 8
 678              		@ frame_needed = 0, uses_anonymous_args = 0
 679              	.LVL52:
 680 0000 30B5     		push	{r4, r5, lr}
 681              		.cfi_def_cfa_offset 12
 682              		.cfi_offset 4, -12
 683              		.cfi_offset 5, -8
 684              		.cfi_offset 14, -4
ARM GAS  C:\Users\Valentin\AppData\Local\Temp\cczt6AAz.s 			page 13


 685 0002 0B4A     		ldr	r2, .L78
 686 0004 83B0     		sub	sp, sp, #12
 687              		.cfi_def_cfa_offset 24
 688              		.loc 1 168 0
 689 0006 1368     		ldr	r3, [r2]
 690 0008 0193     		str	r3, [sp, #4]
 691              		.loc 1 170 0
 692 000a 69B9     		cbnz	r1, .L75
 693              	.LVL53:
 694              	.LBB152:
 695              	.LBB153:
 696              		.loc 1 162 0
 697 000c 094D     		ldr	r5, .L78+4
 698              		.loc 1 163 0
 699 000e 0A4C     		ldr	r4, .L78+8
 700              		.loc 1 164 0
 701 0010 0A49     		ldr	r1, .L78+12
 702              	.LVL54:
 703              		.loc 1 162 0
 704 0012 0123     		movs	r3, #1
 705 0014 2B70     		strb	r3, [r5]
 706              		.loc 1 163 0
 707 0016 2370     		strb	r3, [r4]
 708              		.loc 1 164 0
 709 0018 0860     		str	r0, [r1]
 710              	.LVL55:
 711              	.L73:
 712              	.LBE153:
 713              	.LBE152:
 714              		.loc 1 173 0
 715 001a 0199     		ldr	r1, [sp, #4]
 716 001c 1268     		ldr	r2, [r2]
 717 001e 9142     		cmp	r1, r2
 718 0020 1846     		mov	r0, r3
 719              	.LVL56:
 720 0022 03D1     		bne	.L77
 721 0024 03B0     		add	sp, sp, #12
 722              		.cfi_remember_state
 723              		.cfi_def_cfa_offset 12
 724              		@ sp needed
 725 0026 30BD     		pop	{r4, r5, pc}
 726              	.LVL57:
 727              	.L75:
 728              		.cfi_restore_state
 729              		.loc 1 172 0
 730 0028 0023     		movs	r3, #0
 731 002a F6E7     		b	.L73
 732              	.LVL58:
 733              	.L77:
 734              		.loc 1 173 0
 735 002c FFF7FEFF 		bl	__stack_chk_fail
 736              	.LVL59:
 737              	.L79:
 738              		.align	2
 739              	.L78:
 740 0030 00000000 		.word	__stack_chk_guard
 741 0034 00000000 		.word	.LANCHOR4
ARM GAS  C:\Users\Valentin\AppData\Local\Temp\cczt6AAz.s 			page 14


 742 0038 00000000 		.word	.LANCHOR5
 743 003c 00000000 		.word	.LANCHOR6
 744              		.cfi_endproc
 745              	.LFE263:
 746              		.size	_test_assert, .-_test_assert
 747              		.section	.text._test_assert_sequence,"ax",%progbits
 748              		.align	1
 749              		.p2align 4,,15
 750              		.global	_test_assert_sequence
 751              		.syntax unified
 752              		.thumb
 753              		.thumb_func
 754              		.fpu fpv4-sp-d16
 755              		.type	_test_assert_sequence, %function
 756              	_test_assert_sequence:
 757              	.LFB264:
 758              		.loc 1 175 0
 759              		.cfi_startproc
 760              		@ args = 0, pretend = 0, frame = 8
 761              		@ frame_needed = 0, uses_anonymous_args = 0
 762              	.LVL60:
 763 0000 F0B5     		push	{r4, r5, r6, r7, lr}
 764              		.cfi_def_cfa_offset 20
 765              		.cfi_offset 4, -20
 766              		.cfi_offset 5, -16
 767              		.cfi_offset 6, -12
 768              		.cfi_offset 7, -8
 769              		.cfi_offset 14, -4
 770 0002 134E     		ldr	r6, .L89
 771              		.loc 1 177 0
 772 0004 134F     		ldr	r7, .L89+4
 773              		.loc 1 176 0
 774 0006 DFF85CC0 		ldr	ip, .L89+20
 775              		.loc 1 175 0
 776 000a 3368     		ldr	r3, [r6]
 777              		.loc 1 177 0
 778 000c 3D68     		ldr	r5, [r7]
 779              		.loc 1 175 0
 780 000e 83B0     		sub	sp, sp, #12
 781              		.cfi_def_cfa_offset 32
 782 0010 0139     		subs	r1, r1, #1
 783              	.LVL61:
 784              		.loc 1 175 0
 785 0012 0193     		str	r3, [sp, #4]
 786              	.LVL62:
 787              		.loc 1 176 0
 788 0014 6346     		mov	r3, ip
 789              		.loc 1 177 0
 790 0016 03E0     		b	.L81
 791              	.LVL63:
 792              	.L83:
 793              		.loc 1 178 0
 794 0018 13F8014B 		ldrb	r4, [r3], #1	@ zero_extendqisi2
 795              	.LVL64:
 796 001c 9442     		cmp	r4, r2
 797 001e 07D1     		bne	.L84
 798              	.LVL65:
ARM GAS  C:\Users\Valentin\AppData\Local\Temp\cczt6AAz.s 			page 15


 799              	.L81:
 800              		.loc 1 177 0
 801 0020 9D42     		cmp	r5, r3
 802 0022 11F8012F 		ldrb	r2, [r1, #1]!	@ zero_extendqisi2
 803              	.LVL66:
 804 0026 F7D8     		bhi	.L83
 805              		.loc 1 181 0
 806 0028 12B9     		cbnz	r2, .L84
 807              	.LBB154:
 808              	.LBB155:
 809              		.loc 1 135 0
 810 002a C7F800C0 		str	ip, [r7]
 811              	.LBE155:
 812              	.LBE154:
 813              		.loc 1 184 0
 814 002e 06E0     		b	.L82
 815              	.LVL67:
 816              	.L84:
 817              	.LBB156:
 818              	.LBB157:
 819              		.loc 1 162 0
 820 0030 094C     		ldr	r4, .L89+8
 821              		.loc 1 163 0
 822 0032 0A49     		ldr	r1, .L89+12
 823              		.loc 1 164 0
 824 0034 0A4B     		ldr	r3, .L89+16
 825              		.loc 1 162 0
 826 0036 0122     		movs	r2, #1
 827 0038 2270     		strb	r2, [r4]
 828              		.loc 1 163 0
 829 003a 0A70     		strb	r2, [r1]
 830              		.loc 1 164 0
 831 003c 1860     		str	r0, [r3]
 832              	.LVL68:
 833              	.L82:
 834              	.LBE157:
 835              	.LBE156:
 836              		.loc 1 185 0
 837 003e 0199     		ldr	r1, [sp, #4]
 838 0040 3368     		ldr	r3, [r6]
 839 0042 9942     		cmp	r1, r3
 840 0044 1046     		mov	r0, r2
 841              	.LVL69:
 842 0046 01D1     		bne	.L88
 843 0048 03B0     		add	sp, sp, #12
 844              		.cfi_remember_state
 845              		.cfi_def_cfa_offset 20
 846              		@ sp needed
 847 004a F0BD     		pop	{r4, r5, r6, r7, pc}
 848              	.L88:
 849              		.cfi_restore_state
 850 004c FFF7FEFF 		bl	__stack_chk_fail
 851              	.LVL70:
 852              	.L90:
 853              		.align	2
 854              	.L89:
 855 0050 00000000 		.word	__stack_chk_guard
ARM GAS  C:\Users\Valentin\AppData\Local\Temp\cczt6AAz.s 			page 16


 856 0054 00000000 		.word	.LANCHOR2
 857 0058 00000000 		.word	.LANCHOR4
 858 005c 00000000 		.word	.LANCHOR5
 859 0060 00000000 		.word	.LANCHOR6
 860 0064 00000000 		.word	.LANCHOR7
 861              		.cfi_endproc
 862              	.LFE264:
 863              		.size	_test_assert_sequence, .-_test_assert_sequence
 864              		.section	.text._test_assert_time_window,"ax",%progbits
 865              		.align	1
 866              		.p2align 4,,15
 867              		.global	_test_assert_time_window
 868              		.syntax unified
 869              		.thumb
 870              		.thumb_func
 871              		.fpu fpv4-sp-d16
 872              		.type	_test_assert_time_window, %function
 873              	_test_assert_time_window:
 874              	.LFB265:
 875              		.loc 1 187 0
 876              		.cfi_startproc
 877              		@ args = 0, pretend = 0, frame = 8
 878              		@ frame_needed = 0, uses_anonymous_args = 0
 879              	.LVL71:
 880 0000 2DE9F043 		push	{r4, r5, r6, r7, r8, r9, lr}
 881              		.cfi_def_cfa_offset 28
 882              		.cfi_offset 4, -28
 883              		.cfi_offset 5, -24
 884              		.cfi_offset 6, -20
 885              		.cfi_offset 7, -16
 886              		.cfi_offset 8, -12
 887              		.cfi_offset 9, -8
 888              		.cfi_offset 14, -4
 889 0004 DFF88880 		ldr	r8, .L99+20
 890 0008 83B0     		sub	sp, sp, #12
 891              		.cfi_def_cfa_offset 40
 892              		.loc 1 187 0
 893 000a D8F80030 		ldr	r3, [r8]
 894 000e 0193     		str	r3, [sp, #4]
 895 0010 0746     		mov	r7, r0
 896 0012 8946     		mov	r9, r1
 897              	.LVL72:
 898 0014 1546     		mov	r5, r2
 899              	.LVL73:
 900              	.LBB180:
 901              	.LBB181:
 902              	.LBB182:
 903              	.LBB183:
 904              	.LBB184:
 905              	.LBB185:
 906              	.LBB186:
 907              	.LBB187:
 908              		.loc 2 546 0
 909 0016 2023     		movs	r3, #32
 910              		.syntax unified
 911              	@ 546 "../e-puck2_main-processor/ChibiOS//os/ext/CMSIS/include/core_cmFunc.h" 1
 912 0018 83F31188 		MSR basepri, r3
ARM GAS  C:\Users\Valentin\AppData\Local\Temp\cczt6AAz.s 			page 17


 913              	@ 0 "" 2
 914              	.LVL74:
 915              		.thumb
 916              		.syntax unified
 917              	.LBE187:
 918              	.LBE186:
 919              	.LBE185:
 920              	.LBE184:
 921              	.LBE183:
 922              	.LBB189:
 923              	.LBB190:
 924              		.file 4 "../e-puck2_main-processor/ChibiOS//os/rt/include/chvt.h"
 925              		.loc 4 231 0
 926 001c 174C     		ldr	r4, .L99
 927              	.LBE190:
 928              	.LBE189:
 929              	.LBB192:
 930              	.LBB188:
 931              		.loc 3 349 0
 932 001e FFF7FEFF 		bl	_stats_start_measure_crit_thd
 933              	.LVL75:
 934              		.loc 3 350 0
 935 0022 FFF7FEFF 		bl	_dbg_check_lock
 936              	.LVL76:
 937              	.LBE188:
 938              	.LBE192:
 939              	.LBB193:
 940              	.LBB191:
 941              		.loc 4 231 0
 942 0026 A66A     		ldr	r6, [r4, #40]
 943              	.LBE191:
 944              	.LBE193:
 945              	.LBB194:
 946              	.LBB195:
 947              		.loc 3 360 0
 948 0028 FFF7FEFF 		bl	_dbg_check_unlock
 949              	.LVL77:
 950              		.loc 3 361 0
 951 002c FFF7FEFF 		bl	_stats_stop_measure_crit_thd
 952              	.LVL78:
 953              		.loc 3 367 0
 954 0030 2368     		ldr	r3, [r4]
 955 0032 A342     		cmp	r3, r4
 956 0034 04D0     		beq	.L92
 957 0036 A269     		ldr	r2, [r4, #24]
 958 0038 9B68     		ldr	r3, [r3, #8]
 959 003a 9268     		ldr	r2, [r2, #8]
 960 003c 9A42     		cmp	r2, r3
 961 003e 17D3     		bcc	.L97
 962              	.L92:
 963              	.LVL79:
 964              	.LBB196:
 965              	.LBB197:
 966              	.LBB198:
 967              		.loc 2 546 0
 968 0040 0020     		movs	r0, #0
 969              		.syntax unified
ARM GAS  C:\Users\Valentin\AppData\Local\Temp\cczt6AAz.s 			page 18


 970              	@ 546 "../e-puck2_main-processor/ChibiOS//os/ext/CMSIS/include/core_cmFunc.h" 1
 971 0042 80F31188 		MSR basepri, r0
 972              	@ 0 "" 2
 973              	.LVL80:
 974              		.thumb
 975              		.syntax unified
 976              	.LBE198:
 977              	.LBE197:
 978              	.LBE196:
 979              	.LBE195:
 980              	.LBE194:
 981              	.LBE182:
 982              	.LBE181:
 983              	.LBB202:
 984              	.LBB203:
 985              		.loc 4 288 0
 986 0046 A6EB0906 		sub	r6, r6, r9
 987 004a A5EB0905 		sub	r5, r5, r9
 988              	.LVL81:
 989              	.LBE203:
 990              	.LBE202:
 991              	.LBE180:
 992              	.LBB205:
 993              	.LBB206:
 994              		.loc 1 170 0
 995 004e AE42     		cmp	r6, r5
 996 0050 06D3     		bcc	.L93
 997              	.LVL82:
 998              	.LBB207:
 999              	.LBB208:
 1000              		.loc 1 162 0
 1001 0052 0B49     		ldr	r1, .L99+4
 1002              		.loc 1 163 0
 1003 0054 0B4A     		ldr	r2, .L99+8
 1004              		.loc 1 164 0
 1005 0056 0C4B     		ldr	r3, .L99+12
 1006              		.loc 1 162 0
 1007 0058 0120     		movs	r0, #1
 1008 005a 0870     		strb	r0, [r1]
 1009              		.loc 1 163 0
 1010 005c 1070     		strb	r0, [r2]
 1011              		.loc 1 164 0
 1012 005e 1F60     		str	r7, [r3]
 1013              	.LVL83:
 1014              	.L93:
 1015              	.LBE208:
 1016              	.LBE207:
 1017              	.LBE206:
 1018              	.LBE205:
 1019              		.loc 1 190 0
 1020 0060 019A     		ldr	r2, [sp, #4]
 1021 0062 D8F80030 		ldr	r3, [r8]
 1022 0066 9A42     		cmp	r2, r3
 1023 0068 06D1     		bne	.L98
 1024 006a 03B0     		add	sp, sp, #12
 1025              		.cfi_remember_state
 1026              		.cfi_def_cfa_offset 28
ARM GAS  C:\Users\Valentin\AppData\Local\Temp\cczt6AAz.s 			page 19


 1027              		@ sp needed
 1028 006c BDE8F083 		pop	{r4, r5, r6, r7, r8, r9, pc}
 1029              	.LVL84:
 1030              	.L97:
 1031              		.cfi_restore_state
 1032              	.LBB209:
 1033              	.LBB204:
 1034              	.LBB201:
 1035              	.LBB200:
 1036              	.LBB199:
 1037              		.loc 3 367 0
 1038 0070 0648     		ldr	r0, .L99+16
 1039 0072 FFF7FEFF 		bl	chSysHalt
 1040              	.LVL85:
 1041 0076 E3E7     		b	.L92
 1042              	.LVL86:
 1043              	.L98:
 1044              	.LBE199:
 1045              	.LBE200:
 1046              	.LBE201:
 1047              	.LBE204:
 1048              	.LBE209:
 1049              		.loc 1 190 0
 1050 0078 FFF7FEFF 		bl	__stack_chk_fail
 1051              	.LVL87:
 1052              	.L100:
 1053              		.align	2
 1054              	.L99:
 1055 007c 00000000 		.word	ch
 1056 0080 00000000 		.word	.LANCHOR4
 1057 0084 00000000 		.word	.LANCHOR5
 1058 0088 00000000 		.word	.LANCHOR6
 1059 008c 00000000 		.word	.LANCHOR3
 1060 0090 00000000 		.word	__stack_chk_guard
 1061              		.cfi_endproc
 1062              	.LFE265:
 1063              		.size	_test_assert_time_window, .-_test_assert_time_window
 1064              		.section	.text.test_terminate_threads,"ax",%progbits
 1065              		.align	1
 1066              		.p2align 4,,15
 1067              		.global	test_terminate_threads
 1068              		.syntax unified
 1069              		.thumb
 1070              		.thumb_func
 1071              		.fpu fpv4-sp-d16
 1072              		.type	test_terminate_threads, %function
 1073              	test_terminate_threads:
 1074              	.LFB266:
 1075              		.loc 1 199 0
 1076              		.cfi_startproc
 1077              		@ args = 0, pretend = 0, frame = 8
 1078              		@ frame_needed = 0, uses_anonymous_args = 0
 1079 0000 70B5     		push	{r4, r5, r6, lr}
 1080              		.cfi_def_cfa_offset 16
 1081              		.cfi_offset 4, -16
 1082              		.cfi_offset 5, -12
 1083              		.cfi_offset 6, -8
ARM GAS  C:\Users\Valentin\AppData\Local\Temp\cczt6AAz.s 			page 20


 1084              		.cfi_offset 14, -4
 1085 0002 0B4E     		ldr	r6, .L111
 1086 0004 0B4C     		ldr	r4, .L111+4
 1087 0006 3368     		ldr	r3, [r6]
 1088 0008 82B0     		sub	sp, sp, #8
 1089              		.cfi_def_cfa_offset 24
 1090 000a 04F11405 		add	r5, r4, #20
 1091              		.loc 1 199 0
 1092 000e 0193     		str	r3, [sp, #4]
 1093              	.LVL88:
 1094              	.L103:
 1095              		.loc 1 203 0
 1096 0010 54F8040B 		ldr	r0, [r4], #4
 1097 0014 08B1     		cbz	r0, .L102
 1098              		.loc 1 204 0
 1099 0016 FFF7FEFF 		bl	chThdTerminate
 1100              	.LVL89:
 1101              	.L102:
 1102              		.loc 1 202 0 discriminator 2
 1103 001a AC42     		cmp	r4, r5
 1104 001c F8D1     		bne	.L103
 1105              		.loc 1 205 0
 1106 001e 019A     		ldr	r2, [sp, #4]
 1107 0020 3368     		ldr	r3, [r6]
 1108 0022 9A42     		cmp	r2, r3
 1109 0024 01D1     		bne	.L110
 1110 0026 02B0     		add	sp, sp, #8
 1111              		.cfi_remember_state
 1112              		.cfi_def_cfa_offset 16
 1113              		@ sp needed
 1114 0028 70BD     		pop	{r4, r5, r6, pc}
 1115              	.L110:
 1116              		.cfi_restore_state
 1117 002a FFF7FEFF 		bl	__stack_chk_fail
 1118              	.LVL90:
 1119              	.L112:
 1120 002e 00BF     		.align	2
 1121              	.L111:
 1122 0030 00000000 		.word	__stack_chk_guard
 1123 0034 00000000 		.word	.LANCHOR8
 1124              		.cfi_endproc
 1125              	.LFE266:
 1126              		.size	test_terminate_threads, .-test_terminate_threads
 1127              		.section	.text.test_wait_threads,"ax",%progbits
 1128              		.align	1
 1129              		.p2align 4,,15
 1130              		.global	test_wait_threads
 1131              		.syntax unified
 1132              		.thumb
 1133              		.thumb_func
 1134              		.fpu fpv4-sp-d16
 1135              		.type	test_wait_threads, %function
 1136              	test_wait_threads:
 1137              	.LFB267:
 1138              		.loc 1 210 0
 1139              		.cfi_startproc
 1140              		@ args = 0, pretend = 0, frame = 8
ARM GAS  C:\Users\Valentin\AppData\Local\Temp\cczt6AAz.s 			page 21


 1141              		@ frame_needed = 0, uses_anonymous_args = 0
 1142 0000 F0B5     		push	{r4, r5, r6, r7, lr}
 1143              		.cfi_def_cfa_offset 20
 1144              		.cfi_offset 4, -20
 1145              		.cfi_offset 5, -16
 1146              		.cfi_offset 6, -12
 1147              		.cfi_offset 7, -8
 1148              		.cfi_offset 14, -4
 1149 0002 0C4F     		ldr	r7, .L123
 1150 0004 0C4C     		ldr	r4, .L123+4
 1151 0006 3B68     		ldr	r3, [r7]
 1152 0008 83B0     		sub	sp, sp, #12
 1153              		.cfi_def_cfa_offset 32
 1154 000a 04F11405 		add	r5, r4, #20
 1155              		.loc 1 210 0
 1156 000e 0193     		str	r3, [sp, #4]
 1157              	.LVL91:
 1158              		.loc 1 216 0
 1159 0010 0026     		movs	r6, #0
 1160              	.LVL92:
 1161              	.L115:
 1162              		.loc 1 214 0
 1163 0012 54F8040B 		ldr	r0, [r4], #4
 1164 0016 18B1     		cbz	r0, .L114
 1165              		.loc 1 215 0
 1166 0018 FFF7FEFF 		bl	chThdWait
 1167              	.LVL93:
 1168              		.loc 1 216 0
 1169 001c 44F8046C 		str	r6, [r4, #-4]
 1170              	.L114:
 1171              		.loc 1 213 0 discriminator 2
 1172 0020 AC42     		cmp	r4, r5
 1173 0022 F6D1     		bne	.L115
 1174              		.loc 1 218 0
 1175 0024 019A     		ldr	r2, [sp, #4]
 1176 0026 3B68     		ldr	r3, [r7]
 1177 0028 9A42     		cmp	r2, r3
 1178 002a 01D1     		bne	.L122
 1179 002c 03B0     		add	sp, sp, #12
 1180              		.cfi_remember_state
 1181              		.cfi_def_cfa_offset 20
 1182              		@ sp needed
 1183 002e F0BD     		pop	{r4, r5, r6, r7, pc}
 1184              	.L122:
 1185              		.cfi_restore_state
 1186 0030 FFF7FEFF 		bl	__stack_chk_fail
 1187              	.LVL94:
 1188              	.L124:
 1189              		.align	2
 1190              	.L123:
 1191 0034 00000000 		.word	__stack_chk_guard
 1192 0038 00000000 		.word	.LANCHOR8
 1193              		.cfi_endproc
 1194              	.LFE267:
 1195              		.size	test_wait_threads, .-test_wait_threads
 1196              		.section	.text.test_cpu_pulse,"ax",%progbits
 1197              		.align	1
ARM GAS  C:\Users\Valentin\AppData\Local\Temp\cczt6AAz.s 			page 22


 1198              		.p2align 4,,15
 1199              		.global	test_cpu_pulse
 1200              		.syntax unified
 1201              		.thumb
 1202              		.thumb_func
 1203              		.fpu fpv4-sp-d16
 1204              		.type	test_cpu_pulse, %function
 1205              	test_cpu_pulse:
 1206              	.LFB268:
 1207              		.loc 1 227 0
 1208              		.cfi_startproc
 1209              		@ args = 0, pretend = 0, frame = 8
 1210              		@ frame_needed = 0, uses_anonymous_args = 0
 1211              	.LVL95:
 1212 0000 30B5     		push	{r4, r5, lr}
 1213              		.cfi_def_cfa_offset 12
 1214              		.cfi_offset 4, -12
 1215              		.cfi_offset 5, -8
 1216              		.cfi_offset 14, -4
 1217 0002 124D     		ldr	r5, .L134
 1218              	.LBB210:
 1219              	.LBB211:
 1220              		.file 5 "../e-puck2_main-processor/ChibiOS//os/rt/include/chthreads.h"
 1221              		.loc 5 176 0
 1222 0004 124A     		ldr	r2, .L134+4
 1223              	.LBE211:
 1224              	.LBE210:
 1225              		.loc 1 227 0
 1226 0006 2B68     		ldr	r3, [r5]
 1227              	.LBB213:
 1228              	.LBB212:
 1229              		.loc 5 176 0
 1230 0008 9469     		ldr	r4, [r2, #24]
 1231              	.LBE212:
 1232              	.LBE213:
 1233              		.loc 1 227 0
 1234 000a 83B0     		sub	sp, sp, #12
 1235              		.cfi_def_cfa_offset 24
 1236              		.loc 1 227 0
 1237 000c 0193     		str	r3, [sp, #4]
 1238              		.loc 1 231 0
 1239 000e 4FF47A73 		mov	r3, #1000
 1240 0012 03FB00F3 		mul	r3, r3, r0
 1241 0016 0F48     		ldr	r0, .L134+8
 1242              	.LVL96:
 1243              	.LBB214:
 1244              	.LBB215:
 1245              		.loc 5 205 0
 1246 0018 616A     		ldr	r1, [r4, #36]
 1247              	.LBE215:
 1248              	.LBE214:
 1249              		.loc 1 231 0
 1250 001a 03F2E733 		addw	r3, r3, #999
 1251 001e A0FB0323 		umull	r2, r3, r0, r3
 1252 0022 01EB9313 		add	r3, r1, r3, lsr #6
 1253              	.LVL97:
 1254              	.L130:
ARM GAS  C:\Users\Valentin\AppData\Local\Temp\cczt6AAz.s 			page 23


 1255              		.loc 1 238 0
 1256 0026 8B42     		cmp	r3, r1
 1257              	.LBB216:
 1258              	.LBB217:
 1259              		.loc 5 205 0
 1260 0028 626A     		ldr	r2, [r4, #36]
 1261              	.LBE217:
 1262              	.LBE216:
 1263              		.loc 1 238 0
 1264 002a 07D9     		bls	.L126
 1265              		.loc 1 238 0 is_stmt 0 discriminator 1
 1266 002c 9142     		cmp	r1, r2
 1267 002e 07D9     		bls	.L132
 1268              	.L125:
 1269              		.loc 1 240 0 is_stmt 1
 1270 0030 019A     		ldr	r2, [sp, #4]
 1271 0032 2B68     		ldr	r3, [r5]
 1272              	.LVL98:
 1273 0034 9A42     		cmp	r2, r3
 1274 0036 06D1     		bne	.L133
 1275 0038 03B0     		add	sp, sp, #12
 1276              		.cfi_remember_state
 1277              		.cfi_def_cfa_offset 12
 1278              		@ sp needed
 1279 003a 30BD     		pop	{r4, r5, pc}
 1280              	.LVL99:
 1281              	.L126:
 1282              		.cfi_restore_state
 1283              		.loc 1 239 0
 1284 003c 9142     		cmp	r1, r2
 1285 003e F2D9     		bls	.L130
 1286              	.L132:
 1287              		.loc 1 239 0 is_stmt 0 discriminator 2
 1288 0040 9342     		cmp	r3, r2
 1289 0042 F0D8     		bhi	.L130
 1290 0044 F4E7     		b	.L125
 1291              	.LVL100:
 1292              	.L133:
 1293              		.loc 1 240 0 is_stmt 1
 1294 0046 FFF7FEFF 		bl	__stack_chk_fail
 1295              	.LVL101:
 1296              	.L135:
 1297 004a 00BF     		.align	2
 1298              	.L134:
 1299 004c 00000000 		.word	__stack_chk_guard
 1300 0050 00000000 		.word	ch
 1301 0054 D34D6210 		.word	274877907
 1302              		.cfi_endproc
 1303              	.LFE268:
 1304              		.size	test_cpu_pulse, .-test_cpu_pulse
 1305              		.section	.text.test_wait_tick,"ax",%progbits
 1306              		.align	1
 1307              		.p2align 4,,15
 1308              		.global	test_wait_tick
 1309              		.syntax unified
 1310              		.thumb
 1311              		.thumb_func
ARM GAS  C:\Users\Valentin\AppData\Local\Temp\cczt6AAz.s 			page 24


 1312              		.fpu fpv4-sp-d16
 1313              		.type	test_wait_tick, %function
 1314              	test_wait_tick:
 1315              	.LFB269:
 1316              		.loc 1 248 0
 1317              		.cfi_startproc
 1318              		@ args = 0, pretend = 0, frame = 8
 1319              		@ frame_needed = 0, uses_anonymous_args = 0
 1320 0000 70B5     		push	{r4, r5, r6, lr}
 1321              		.cfi_def_cfa_offset 16
 1322              		.cfi_offset 4, -16
 1323              		.cfi_offset 5, -12
 1324              		.cfi_offset 6, -8
 1325              		.cfi_offset 14, -4
 1326 0002 164D     		ldr	r5, .L142
 1327 0004 82B0     		sub	sp, sp, #8
 1328              		.cfi_def_cfa_offset 24
 1329              		.loc 1 248 0
 1330 0006 2B68     		ldr	r3, [r5]
 1331 0008 0193     		str	r3, [sp, #4]
 1332              		.loc 1 250 0
 1333 000a 0120     		movs	r0, #1
 1334 000c FFF7FEFF 		bl	chThdSleep
 1335              	.LVL102:
 1336              	.LBB232:
 1337              	.LBB233:
 1338              	.LBB234:
 1339              	.LBB235:
 1340              	.LBB236:
 1341              	.LBB237:
 1342              	.LBB238:
 1343              		.loc 2 546 0
 1344 0010 2023     		movs	r3, #32
 1345              		.syntax unified
 1346              	@ 546 "../e-puck2_main-processor/ChibiOS//os/ext/CMSIS/include/core_cmFunc.h" 1
 1347 0012 83F31188 		MSR basepri, r3
 1348              	@ 0 "" 2
 1349              	.LVL103:
 1350              		.thumb
 1351              		.syntax unified
 1352              	.LBE238:
 1353              	.LBE237:
 1354              	.LBE236:
 1355              	.LBE235:
 1356              	.LBE234:
 1357              	.LBB240:
 1358              	.LBB241:
 1359              		.loc 4 231 0
 1360 0016 124C     		ldr	r4, .L142+4
 1361              	.LBE241:
 1362              	.LBE240:
 1363              	.LBB243:
 1364              	.LBB239:
 1365              		.loc 3 349 0
 1366 0018 FFF7FEFF 		bl	_stats_start_measure_crit_thd
 1367              	.LVL104:
 1368              		.loc 3 350 0
ARM GAS  C:\Users\Valentin\AppData\Local\Temp\cczt6AAz.s 			page 25


 1369 001c FFF7FEFF 		bl	_dbg_check_lock
 1370              	.LVL105:
 1371              	.LBE239:
 1372              	.LBE243:
 1373              	.LBB244:
 1374              	.LBB242:
 1375              		.loc 4 231 0
 1376 0020 A66A     		ldr	r6, [r4, #40]
 1377              	.LBE242:
 1378              	.LBE244:
 1379              	.LBB245:
 1380              	.LBB246:
 1381              		.loc 3 360 0
 1382 0022 FFF7FEFF 		bl	_dbg_check_unlock
 1383              	.LVL106:
 1384              		.loc 3 361 0
 1385 0026 FFF7FEFF 		bl	_stats_stop_measure_crit_thd
 1386              	.LVL107:
 1387              		.loc 3 367 0
 1388 002a 2368     		ldr	r3, [r4]
 1389 002c A342     		cmp	r3, r4
 1390 002e 04D0     		beq	.L137
 1391 0030 A269     		ldr	r2, [r4, #24]
 1392 0032 9B68     		ldr	r3, [r3, #8]
 1393 0034 9268     		ldr	r2, [r2, #8]
 1394 0036 9A42     		cmp	r2, r3
 1395 0038 09D3     		bcc	.L140
 1396              	.L137:
 1397              	.LVL108:
 1398              	.LBB247:
 1399              	.LBB248:
 1400              	.LBB249:
 1401              		.loc 2 546 0
 1402 003a 0023     		movs	r3, #0
 1403              		.syntax unified
 1404              	@ 546 "../e-puck2_main-processor/ChibiOS//os/ext/CMSIS/include/core_cmFunc.h" 1
 1405 003c 83F31188 		MSR basepri, r3
 1406              	@ 0 "" 2
 1407              	.LVL109:
 1408              		.thumb
 1409              		.syntax unified
 1410              	.LBE249:
 1411              	.LBE248:
 1412              	.LBE247:
 1413              	.LBE246:
 1414              	.LBE245:
 1415              	.LBE233:
 1416              	.LBE232:
 1417              		.loc 1 252 0
 1418 0040 019A     		ldr	r2, [sp, #4]
 1419 0042 2B68     		ldr	r3, [r5]
 1420 0044 9A42     		cmp	r2, r3
 1421 0046 3046     		mov	r0, r6
 1422 0048 05D1     		bne	.L141
 1423 004a 02B0     		add	sp, sp, #8
 1424              		.cfi_remember_state
 1425              		.cfi_def_cfa_offset 16
ARM GAS  C:\Users\Valentin\AppData\Local\Temp\cczt6AAz.s 			page 26


 1426              		@ sp needed
 1427 004c 70BD     		pop	{r4, r5, r6, pc}
 1428              	.L140:
 1429              		.cfi_restore_state
 1430              	.LBB253:
 1431              	.LBB252:
 1432              	.LBB251:
 1433              	.LBB250:
 1434              		.loc 3 367 0
 1435 004e 0548     		ldr	r0, .L142+8
 1436 0050 FFF7FEFF 		bl	chSysHalt
 1437              	.LVL110:
 1438 0054 F1E7     		b	.L137
 1439              	.L141:
 1440              	.LBE250:
 1441              	.LBE251:
 1442              	.LBE252:
 1443              	.LBE253:
 1444              		.loc 1 252 0
 1445 0056 FFF7FEFF 		bl	__stack_chk_fail
 1446              	.LVL111:
 1447              	.L143:
 1448 005a 00BF     		.align	2
 1449              	.L142:
 1450 005c 00000000 		.word	__stack_chk_guard
 1451 0060 00000000 		.word	ch
 1452 0064 00000000 		.word	.LANCHOR3
 1453              		.cfi_endproc
 1454              	.LFE269:
 1455              		.size	test_wait_tick, .-test_wait_tick
 1456              		.section	.text.test_start_timer,"ax",%progbits
 1457              		.align	1
 1458              		.p2align 4,,15
 1459              		.global	test_start_timer
 1460              		.syntax unified
 1461              		.thumb
 1462              		.thumb_func
 1463              		.fpu fpv4-sp-d16
 1464              		.type	test_start_timer, %function
 1465              	test_start_timer:
 1466              	.LFB271:
 1467              		.loc 1 275 0
 1468              		.cfi_startproc
 1469              		@ args = 0, pretend = 0, frame = 8
 1470              		@ frame_needed = 0, uses_anonymous_args = 0
 1471              	.LVL112:
 1472 0000 30B5     		push	{r4, r5, lr}
 1473              		.cfi_def_cfa_offset 12
 1474              		.cfi_offset 4, -12
 1475              		.cfi_offset 5, -8
 1476              		.cfi_offset 14, -4
 1477 0002 204D     		ldr	r5, .L154
 1478              		.loc 1 278 0
 1479 0004 204B     		ldr	r3, .L154+4
 1480              		.loc 1 275 0
 1481 0006 2A68     		ldr	r2, [r5]
 1482              		.loc 1 277 0
ARM GAS  C:\Users\Valentin\AppData\Local\Temp\cczt6AAz.s 			page 27


 1483 0008 4FF47A74 		mov	r4, #1000
 1484              		.loc 1 275 0
 1485 000c 83B0     		sub	sp, sp, #12
 1486              		.cfi_def_cfa_offset 24
 1487              		.loc 1 277 0
 1488 000e 04FB00F4 		mul	r4, r4, r0
 1489 0012 1E48     		ldr	r0, .L154+8
 1490              	.LVL113:
 1491              		.loc 1 275 0
 1492 0014 0192     		str	r2, [sp, #4]
 1493              		.loc 1 277 0
 1494 0016 04F2E734 		addw	r4, r4, #999
 1495 001a A0FB0424 		umull	r2, r4, r0, r4
 1496              		.loc 1 278 0
 1497 001e 0022     		movs	r2, #0
 1498 0020 1A70     		strb	r2, [r3]
 1499              		.loc 1 277 0
 1500 0022 A409     		lsrs	r4, r4, #6
 1501              	.LVL114:
 1502              	.LBB272:
 1503              	.LBB273:
 1504              	.LBB274:
 1505              	.LBB275:
 1506              	.LBB276:
 1507              	.LBB277:
 1508              		.loc 2 546 0
 1509 0024 2023     		movs	r3, #32
 1510              		.syntax unified
 1511              	@ 546 "../e-puck2_main-processor/ChibiOS//os/ext/CMSIS/include/core_cmFunc.h" 1
 1512 0026 83F31188 		MSR basepri, r3
 1513              	@ 0 "" 2
 1514              	.LVL115:
 1515              		.thumb
 1516              		.syntax unified
 1517              	.LBE277:
 1518              	.LBE276:
 1519              	.LBE275:
 1520              		.loc 3 349 0
 1521 002a FFF7FEFF 		bl	_stats_start_measure_crit_thd
 1522              	.LVL116:
 1523              		.loc 3 350 0
 1524 002e FFF7FEFF 		bl	_dbg_check_lock
 1525              	.LVL117:
 1526              	.LBE274:
 1527              	.LBE273:
 1528              	.LBB278:
 1529              	.LBB279:
 1530              	.LBB280:
 1531              	.LBB281:
 1532              	.LBB282:
 1533              	.LBB283:
 1534              		.loc 4 339 0
 1535 0032 FFF7FEFF 		bl	chDbgCheckClassI
 1536              	.LVL118:
 1537              		.loc 4 341 0
 1538 0036 1648     		ldr	r0, .L154+12
 1539              	.LBE283:
ARM GAS  C:\Users\Valentin\AppData\Local\Temp\cczt6AAz.s 			page 28


 1540              	.LBE282:
 1541              		.loc 4 376 0
 1542 0038 C368     		ldr	r3, [r0, #12]
 1543 003a 0BB1     		cbz	r3, .L145
 1544              		.loc 4 377 0
 1545 003c FFF7FEFF 		bl	chVTDoResetI
 1546              	.LVL119:
 1547              	.L145:
 1548              	.LBE281:
 1549              	.LBE280:
 1550              		.loc 4 424 0
 1551 0040 0023     		movs	r3, #0
 1552 0042 144A     		ldr	r2, .L154+16
 1553 0044 1248     		ldr	r0, .L154+12
 1554 0046 2146     		mov	r1, r4
 1555 0048 FFF7FEFF 		bl	chVTDoSetI
 1556              	.LVL120:
 1557              	.LBE279:
 1558              	.LBE278:
 1559              	.LBB284:
 1560              	.LBB285:
 1561              		.loc 3 360 0
 1562 004c FFF7FEFF 		bl	_dbg_check_unlock
 1563              	.LVL121:
 1564              		.loc 3 361 0
 1565 0050 FFF7FEFF 		bl	_stats_stop_measure_crit_thd
 1566              	.LVL122:
 1567              		.loc 3 367 0
 1568 0054 104B     		ldr	r3, .L154+20
 1569 0056 1A68     		ldr	r2, [r3]
 1570 0058 9A42     		cmp	r2, r3
 1571 005a 04D0     		beq	.L146
 1572 005c 9969     		ldr	r1, [r3, #24]
 1573 005e 9368     		ldr	r3, [r2, #8]
 1574 0060 8A68     		ldr	r2, [r1, #8]
 1575 0062 9A42     		cmp	r2, r3
 1576 0064 08D3     		bcc	.L152
 1577              	.L146:
 1578              	.LVL123:
 1579              	.LBB286:
 1580              	.LBB287:
 1581              	.LBB288:
 1582              		.loc 2 546 0
 1583 0066 0023     		movs	r3, #0
 1584              		.syntax unified
 1585              	@ 546 "../e-puck2_main-processor/ChibiOS//os/ext/CMSIS/include/core_cmFunc.h" 1
 1586 0068 83F31188 		MSR basepri, r3
 1587              	@ 0 "" 2
 1588              	.LVL124:
 1589              		.thumb
 1590              		.syntax unified
 1591              	.LBE288:
 1592              	.LBE287:
 1593              	.LBE286:
 1594              	.LBE285:
 1595              	.LBE284:
 1596              	.LBE272:
ARM GAS  C:\Users\Valentin\AppData\Local\Temp\cczt6AAz.s 			page 29


 1597              		.loc 1 280 0
 1598 006c 019A     		ldr	r2, [sp, #4]
 1599 006e 2B68     		ldr	r3, [r5]
 1600 0070 9A42     		cmp	r2, r3
 1601 0072 05D1     		bne	.L153
 1602 0074 03B0     		add	sp, sp, #12
 1603              		.cfi_remember_state
 1604              		.cfi_def_cfa_offset 12
 1605              		@ sp needed
 1606 0076 30BD     		pop	{r4, r5, pc}
 1607              	.LVL125:
 1608              	.L152:
 1609              		.cfi_restore_state
 1610              	.LBB291:
 1611              	.LBB290:
 1612              	.LBB289:
 1613              		.loc 3 367 0
 1614 0078 0848     		ldr	r0, .L154+24
 1615 007a FFF7FEFF 		bl	chSysHalt
 1616              	.LVL126:
 1617 007e F2E7     		b	.L146
 1618              	.LVL127:
 1619              	.L153:
 1620              	.LBE289:
 1621              	.LBE290:
 1622              	.LBE291:
 1623              		.loc 1 280 0
 1624 0080 FFF7FEFF 		bl	__stack_chk_fail
 1625              	.LVL128:
 1626              	.L155:
 1627              		.align	2
 1628              	.L154:
 1629 0084 00000000 		.word	__stack_chk_guard
 1630 0088 00000000 		.word	.LANCHOR0
 1631 008c D34D6210 		.word	274877907
 1632 0090 00000000 		.word	.LANCHOR9
 1633 0094 00000000 		.word	tmr
 1634 0098 00000000 		.word	ch
 1635 009c 00000000 		.word	.LANCHOR3
 1636              		.cfi_endproc
 1637              	.LFE271:
 1638              		.size	test_start_timer, .-test_start_timer
 1639              		.section	.text.TestThread,"ax",%progbits
 1640              		.align	1
 1641              		.p2align 4,,15
 1642              		.global	TestThread
 1643              		.syntax unified
 1644              		.thumb
 1645              		.thumb_func
 1646              		.fpu fpv4-sp-d16
 1647              		.type	TestThread, %function
 1648              	TestThread:
 1649              	.LFB274:
 1650              		.loc 1 316 0
 1651              		.cfi_startproc
 1652              		@ args = 0, pretend = 0, frame = 24
 1653              		@ frame_needed = 0, uses_anonymous_args = 0
ARM GAS  C:\Users\Valentin\AppData\Local\Temp\cczt6AAz.s 			page 30


 1654              	.LVL129:
 1655 0000 2DE9F04F 		push	{r4, r5, r6, r7, r8, r9, r10, fp, lr}
 1656              		.cfi_def_cfa_offset 36
 1657              		.cfi_offset 4, -36
 1658              		.cfi_offset 5, -32
 1659              		.cfi_offset 6, -28
 1660              		.cfi_offset 7, -24
 1661              		.cfi_offset 8, -20
 1662              		.cfi_offset 9, -16
 1663              		.cfi_offset 10, -12
 1664              		.cfi_offset 11, -8
 1665              		.cfi_offset 14, -4
 1666 0004 9A4B     		ldr	r3, .L215
 1667              		.loc 1 319 0
 1668 0006 9B4C     		ldr	r4, .L215+4
 1669              		.loc 1 316 0
 1670 0008 1B68     		ldr	r3, [r3]
 1671              		.loc 1 319 0
 1672 000a 2060     		str	r0, [r4]
 1673              		.loc 1 316 0
 1674 000c 87B0     		sub	sp, sp, #28
 1675              		.cfi_def_cfa_offset 64
 1676              		.loc 1 320 0
 1677 000e 9A48     		ldr	r0, .L215+8
 1678              	.LVL130:
 1679              		.loc 1 316 0
 1680 0010 0593     		str	r3, [sp, #20]
 1681              		.loc 1 320 0
 1682 0012 FFF7FEFF 		bl	test_println
 1683              	.LVL131:
 1684              		.loc 1 321 0
 1685 0016 9948     		ldr	r0, .L215+12
 1686              		.loc 1 322 0
 1687 0018 994D     		ldr	r5, .L215+16
 1688              		.loc 1 321 0
 1689 001a FFF7FEFF 		bl	test_println
 1690              	.LVL132:
 1691              		.loc 1 322 0
 1692 001e 9948     		ldr	r0, .L215+20
 1693 0020 FFF7FEFF 		bl	test_println
 1694              	.LVL133:
 1695              	.LBB328:
 1696              	.LBB329:
 1697              		.loc 1 115 0
 1698 0024 2A21     		movs	r1, #42
 1699              	.LVL134:
 1700              	.L157:
 1701              		.loc 1 116 0
 1702 0026 2068     		ldr	r0, [r4]
 1703 0028 0368     		ldr	r3, [r0]
 1704 002a 9B68     		ldr	r3, [r3, #8]
 1705 002c 9847     		blx	r3
 1706              	.LVL135:
 1707              		.loc 1 115 0
 1708 002e 15F8011F 		ldrb	r1, [r5, #1]!	@ zero_extendqisi2
 1709              	.LVL136:
 1710 0032 0029     		cmp	r1, #0
ARM GAS  C:\Users\Valentin\AppData\Local\Temp\cczt6AAz.s 			page 31


 1711 0034 F7D1     		bne	.L157
 1712              	.LVL137:
 1713              	.LBE329:
 1714              	.LBE328:
 1715              		.loc 1 324 0
 1716 0036 9448     		ldr	r0, .L215+24
 1717 0038 944D     		ldr	r5, .L215+28
 1718 003a FFF7FEFF 		bl	test_println
 1719              	.LVL138:
 1720              	.LBB330:
 1721              	.LBB331:
 1722              		.loc 1 115 0
 1723 003e 2A21     		movs	r1, #42
 1724              	.LVL139:
 1725              	.L158:
 1726              		.loc 1 116 0
 1727 0040 2068     		ldr	r0, [r4]
 1728 0042 0368     		ldr	r3, [r0]
 1729 0044 9B68     		ldr	r3, [r3, #8]
 1730 0046 9847     		blx	r3
 1731              	.LVL140:
 1732              		.loc 1 115 0
 1733 0048 15F8011F 		ldrb	r1, [r5, #1]!	@ zero_extendqisi2
 1734              	.LVL141:
 1735 004c 0029     		cmp	r1, #0
 1736 004e F7D1     		bne	.L158
 1737              	.LVL142:
 1738              	.LBE331:
 1739              	.LBE330:
 1740              		.loc 1 326 0
 1741 0050 8F48     		ldr	r0, .L215+32
 1742 0052 904D     		ldr	r5, .L215+36
 1743 0054 FFF7FEFF 		bl	test_println
 1744              	.LVL143:
 1745              	.LBB332:
 1746              	.LBB333:
 1747              		.loc 1 115 0
 1748 0058 2A21     		movs	r1, #42
 1749              	.LVL144:
 1750              	.L159:
 1751              		.loc 1 116 0
 1752 005a 2068     		ldr	r0, [r4]
 1753 005c 0368     		ldr	r3, [r0]
 1754 005e 9B68     		ldr	r3, [r3, #8]
 1755 0060 9847     		blx	r3
 1756              	.LVL145:
 1757              		.loc 1 115 0
 1758 0062 15F8011F 		ldrb	r1, [r5, #1]!	@ zero_extendqisi2
 1759              	.LVL146:
 1760 0066 0029     		cmp	r1, #0
 1761 0068 F7D1     		bne	.L159
 1762              	.LVL147:
 1763              	.LBE333:
 1764              	.LBE332:
 1765              		.loc 1 329 0
 1766 006a 8B48     		ldr	r0, .L215+40
 1767 006c 8B4D     		ldr	r5, .L215+44
ARM GAS  C:\Users\Valentin\AppData\Local\Temp\cczt6AAz.s 			page 32


 1768 006e FFF7FEFF 		bl	test_println
 1769              	.LVL148:
 1770              	.LBB334:
 1771              	.LBB335:
 1772              		.loc 1 115 0
 1773 0072 2A21     		movs	r1, #42
 1774              	.LVL149:
 1775              	.L160:
 1776              		.loc 1 116 0
 1777 0074 2068     		ldr	r0, [r4]
 1778 0076 0368     		ldr	r3, [r0]
 1779 0078 9B68     		ldr	r3, [r3, #8]
 1780 007a 9847     		blx	r3
 1781              	.LVL150:
 1782              		.loc 1 115 0
 1783 007c 15F8011F 		ldrb	r1, [r5, #1]!	@ zero_extendqisi2
 1784              	.LVL151:
 1785 0080 0029     		cmp	r1, #0
 1786 0082 F7D1     		bne	.L160
 1787              	.LVL152:
 1788              	.LBE335:
 1789              	.LBE334:
 1790              		.loc 1 332 0
 1791 0084 8648     		ldr	r0, .L215+48
 1792 0086 874D     		ldr	r5, .L215+52
 1793 0088 FFF7FEFF 		bl	test_println
 1794              	.LVL153:
 1795              	.LBB336:
 1796              	.LBB337:
 1797              		.loc 1 115 0
 1798 008c 2A21     		movs	r1, #42
 1799              	.LVL154:
 1800              	.L161:
 1801              		.loc 1 116 0
 1802 008e 2068     		ldr	r0, [r4]
 1803 0090 0368     		ldr	r3, [r0]
 1804 0092 9B68     		ldr	r3, [r3, #8]
 1805 0094 9847     		blx	r3
 1806              	.LVL155:
 1807              		.loc 1 115 0
 1808 0096 15F8011F 		ldrb	r1, [r5, #1]!	@ zero_extendqisi2
 1809              	.LVL156:
 1810 009a 0029     		cmp	r1, #0
 1811 009c F7D1     		bne	.L161
 1812              	.LVL157:
 1813              	.LBE337:
 1814              	.LBE336:
 1815              		.loc 1 335 0
 1816 009e 8248     		ldr	r0, .L215+56
 1817 00a0 824D     		ldr	r5, .L215+60
 1818 00a2 FFF7FEFF 		bl	test_println
 1819              	.LVL158:
 1820              	.LBB338:
 1821              	.LBB339:
 1822              		.loc 1 115 0
 1823 00a6 2A21     		movs	r1, #42
 1824              	.LVL159:
ARM GAS  C:\Users\Valentin\AppData\Local\Temp\cczt6AAz.s 			page 33


 1825              	.L162:
 1826              		.loc 1 116 0
 1827 00a8 2068     		ldr	r0, [r4]
 1828 00aa 0368     		ldr	r3, [r0]
 1829 00ac 9B68     		ldr	r3, [r3, #8]
 1830 00ae 9847     		blx	r3
 1831              	.LVL160:
 1832              		.loc 1 115 0
 1833 00b0 15F8011F 		ldrb	r1, [r5, #1]!	@ zero_extendqisi2
 1834              	.LVL161:
 1835 00b4 0029     		cmp	r1, #0
 1836 00b6 F7D1     		bne	.L162
 1837              	.LVL162:
 1838              	.LBE339:
 1839              	.LBE338:
 1840              		.loc 1 339 0
 1841 00b8 7D48     		ldr	r0, .L215+64
 1842 00ba 7E4D     		ldr	r5, .L215+68
 1843 00bc FFF7FEFF 		bl	test_println
 1844              	.LVL163:
 1845              	.LBB340:
 1846              	.LBB341:
 1847              		.loc 1 115 0
 1848 00c0 2A21     		movs	r1, #42
 1849              	.LVL164:
 1850              	.L163:
 1851              		.loc 1 116 0
 1852 00c2 2068     		ldr	r0, [r4]
 1853 00c4 0368     		ldr	r3, [r0]
 1854 00c6 9B68     		ldr	r3, [r3, #8]
 1855 00c8 9847     		blx	r3
 1856              	.LVL165:
 1857              		.loc 1 115 0
 1858 00ca 15F8011F 		ldrb	r1, [r5, #1]!	@ zero_extendqisi2
 1859              	.LVL166:
 1860 00ce 0029     		cmp	r1, #0
 1861 00d0 F7D1     		bne	.L163
 1862              	.LVL167:
 1863              	.LBE341:
 1864              	.LBE340:
 1865              		.loc 1 343 0
 1866 00d2 7948     		ldr	r0, .L215+72
 1867 00d4 794D     		ldr	r5, .L215+76
 1868 00d6 FFF7FEFF 		bl	test_println
 1869              	.LVL168:
 1870              	.LBB342:
 1871              	.LBB343:
 1872              		.loc 1 115 0
 1873 00da 2A21     		movs	r1, #42
 1874              	.LVL169:
 1875              	.L164:
 1876              		.loc 1 116 0
 1877 00dc 2068     		ldr	r0, [r4]
 1878 00de 0368     		ldr	r3, [r0]
 1879 00e0 9B68     		ldr	r3, [r3, #8]
 1880 00e2 9847     		blx	r3
 1881              	.LVL170:
ARM GAS  C:\Users\Valentin\AppData\Local\Temp\cczt6AAz.s 			page 34


 1882              		.loc 1 115 0
 1883 00e4 15F8011F 		ldrb	r1, [r5, #1]!	@ zero_extendqisi2
 1884              	.LVL171:
 1885 00e8 0029     		cmp	r1, #0
 1886 00ea F7D1     		bne	.L164
 1887 00ec 744B     		ldr	r3, .L215+80
 1888              	.LBE343:
 1889              	.LBE342:
 1890              		.loc 1 347 0
 1891 00ee 7548     		ldr	r0, .L215+84
 1892 00f0 0293     		str	r3, [sp, #8]
 1893              		.loc 1 351 0
 1894 00f2 754B     		ldr	r3, .L215+88
 1895 00f4 0391     		str	r1, [sp, #12]
 1896              	.LVL172:
 1897 00f6 0193     		str	r3, [sp, #4]
 1898              		.loc 1 347 0
 1899 00f8 FFF7FEFF 		bl	test_println
 1900              	.LVL173:
 1901              		.loc 1 349 0
 1902 00fc 5E48     		ldr	r0, .L215+8
 1903              	.LBB344:
 1904              	.LBB345:
 1905              	.LBB346:
 1906              	.LBB347:
 1907              		.loc 1 135 0
 1908 00fe 734F     		ldr	r7, .L215+92
 1909 0100 DFF8F0A1 		ldr	r10, .L215+132
 1910              	.LBE347:
 1911              	.LBE346:
 1912              		.loc 1 290 0
 1913 0104 DFF80092 		ldr	r9, .L215+152
 1914              	.LBE345:
 1915              	.LBE344:
 1916              		.loc 1 351 0
 1917 0108 714E     		ldr	r6, .L215+96
 1918              		.loc 1 349 0
 1919 010a FFF7FEFF 		bl	test_println
 1920              	.LVL174:
 1921              		.loc 1 352 0
 1922 010e 0399     		ldr	r1, [sp, #12]
 1923              		.loc 1 351 0
 1924 0110 704B     		ldr	r3, .L215+100
 1925              		.loc 1 352 0
 1926 0112 8B46     		mov	fp, r1
 1927              		.loc 1 351 0
 1928 0114 1970     		strb	r1, [r3]
 1929              	.LVL175:
 1930              	.L165:
 1931 0116 0BF1010B 		add	fp, fp, #1
 1932              	.LVL176:
 1933              		.loc 1 354 0
 1934 011a 4FF00008 		mov	r8, #0
 1935              	.L180:
 1936              	.LVL177:
 1937              		.loc 1 355 0
 1938 011e 3368     		ldr	r3, [r6]
ARM GAS  C:\Users\Valentin\AppData\Local\Temp\cczt6AAz.s 			page 35


 1939 0120 002B     		cmp	r3, #0
 1940 0122 7AD0     		beq	.L213
 1941              	.L178:
 1942              		.loc 1 356 0
 1943 0124 6C4D     		ldr	r5, .L215+104
 1944 0126 FFF7FEFF 		bl	print_line
 1945              	.LVL178:
 1946              	.LBB352:
 1947              	.LBB353:
 1948              		.loc 1 115 0
 1949 012a 2D21     		movs	r1, #45
 1950              	.LVL179:
 1951              	.L166:
 1952              		.loc 1 116 0
 1953 012c 2068     		ldr	r0, [r4]
 1954 012e 0368     		ldr	r3, [r0]
 1955 0130 9B68     		ldr	r3, [r3, #8]
 1956 0132 9847     		blx	r3
 1957              	.LVL180:
 1958              		.loc 1 115 0
 1959 0134 15F8011F 		ldrb	r1, [r5, #1]!	@ zero_extendqisi2
 1960              	.LVL181:
 1961 0138 0029     		cmp	r1, #0
 1962 013a F7D1     		bne	.L166
 1963              	.LVL182:
 1964              	.LBE353:
 1965              	.LBE352:
 1966              		.loc 1 358 0
 1967 013c 5846     		mov	r0, fp
 1968 013e FFF7FEFF 		bl	test_printn
 1969              	.LVL183:
 1970              	.LBB354:
 1971              	.LBB355:
 1972              		.loc 1 116 0
 1973 0142 2068     		ldr	r0, [r4]
 1974              	.LVL184:
 1975              	.LBE355:
 1976              	.LBE354:
 1977              		.loc 1 360 0
 1978 0144 654D     		ldr	r5, .L215+108
 1979              	.LBB358:
 1980              	.LBB356:
 1981              		.loc 1 116 0
 1982 0146 0368     		ldr	r3, [r0]
 1983 0148 2E21     		movs	r1, #46
 1984 014a 9B68     		ldr	r3, [r3, #8]
 1985              	.LBE356:
 1986              	.LBE358:
 1987              		.loc 1 360 0
 1988 014c 08F10108 		add	r8, r8, #1
 1989              	.LVL185:
 1990              	.LBB359:
 1991              	.LBB357:
 1992              		.loc 1 116 0
 1993 0150 9847     		blx	r3
 1994              	.LVL186:
 1995              	.LBE357:
ARM GAS  C:\Users\Valentin\AppData\Local\Temp\cczt6AAz.s 			page 36


 1996              	.LBE359:
 1997              		.loc 1 360 0
 1998 0152 4046     		mov	r0, r8
 1999 0154 FFF7FEFF 		bl	test_printn
 2000              	.LVL187:
 2001              	.LBB360:
 2002              	.LBB361:
 2003              		.loc 1 115 0
 2004 0158 2021     		movs	r1, #32
 2005              	.LVL188:
 2006              	.L167:
 2007              		.loc 1 116 0
 2008 015a 2068     		ldr	r0, [r4]
 2009 015c 0368     		ldr	r3, [r0]
 2010 015e 9B68     		ldr	r3, [r3, #8]
 2011 0160 9847     		blx	r3
 2012              	.LVL189:
 2013              		.loc 1 115 0
 2014 0162 15F8011F 		ldrb	r1, [r5, #1]!	@ zero_extendqisi2
 2015              	.LVL190:
 2016 0166 0029     		cmp	r1, #0
 2017 0168 F7D1     		bne	.L167
 2018              	.LVL191:
 2019              	.LBE361:
 2020              	.LBE360:
 2021              		.loc 1 362 0
 2022 016a 3368     		ldr	r3, [r6]
 2023 016c 1D68     		ldr	r5, [r3]
 2024              	.LVL192:
 2025              	.LBB362:
 2026              	.LBB363:
 2027              		.loc 1 115 0
 2028 016e 2978     		ldrb	r1, [r5]	@ zero_extendqisi2
 2029 0170 39B1     		cbz	r1, .L168
 2030              	.LVL193:
 2031              	.L169:
 2032              		.loc 1 116 0
 2033 0172 2068     		ldr	r0, [r4]
 2034 0174 0368     		ldr	r3, [r0]
 2035 0176 9B68     		ldr	r3, [r3, #8]
 2036 0178 9847     		blx	r3
 2037              	.LVL194:
 2038              		.loc 1 115 0
 2039 017a 15F8011F 		ldrb	r1, [r5, #1]!	@ zero_extendqisi2
 2040              	.LVL195:
 2041 017e 0029     		cmp	r1, #0
 2042 0180 F7D1     		bne	.L169
 2043              	.LVL196:
 2044              	.L168:
 2045              	.LBE363:
 2046              	.LBE362:
 2047              		.loc 1 363 0
 2048 0182 5748     		ldr	r0, .L215+112
 2049 0184 FFF7FEFF 		bl	test_println
 2050              	.LVL197:
 2051              		.loc 1 365 0
 2052 0188 C820     		movs	r0, #200
ARM GAS  C:\Users\Valentin\AppData\Local\Temp\cczt6AAz.s 			page 37


 2053 018a FFF7FEFF 		bl	chThdSleep
 2054              	.LVL198:
 2055              	.LBB364:
 2056              	.LBB350:
 2057              		.loc 1 292 0
 2058 018e 554A     		ldr	r2, .L215+116
 2059              	.LBE350:
 2060              	.LBE364:
 2061              		.loc 1 367 0
 2062 0190 56F8045B 		ldr	r5, [r6], #4
 2063              	.LVL199:
 2064              	.LBB365:
 2065              	.LBB351:
 2066              	.LBB349:
 2067              	.LBB348:
 2068              		.loc 1 135 0
 2069 0194 C7F800A0 		str	r10, [r7]
 2070              	.LBE348:
 2071              	.LBE349:
 2072              		.loc 1 290 0
 2073 0198 0023     		movs	r3, #0
 2074              		.loc 1 292 0
 2075 019a C2E90033 		strd	r3, r3, [r2]
 2076 019e C2E90233 		strd	r3, r3, [r2, #8]
 2077 01a2 1361     		str	r3, [r2, #16]
 2078              		.loc 1 294 0
 2079 01a4 6A68     		ldr	r2, [r5, #4]
 2080              		.loc 1 290 0
 2081 01a6 89F80030 		strb	r3, [r9]
 2082              	.LVL200:
 2083              		.loc 1 294 0
 2084 01aa 02B1     		cbz	r2, .L170
 2085              		.loc 1 295 0
 2086 01ac 9047     		blx	r2
 2087              	.LVL201:
 2088              	.L170:
 2089              		.loc 1 296 0
 2090 01ae EB68     		ldr	r3, [r5, #12]
 2091 01b0 9847     		blx	r3
 2092              	.LVL202:
 2093              		.loc 1 297 0
 2094 01b2 AB68     		ldr	r3, [r5, #8]
 2095 01b4 03B1     		cbz	r3, .L171
 2096              		.loc 1 298 0
 2097 01b6 9847     		blx	r3
 2098              	.LVL203:
 2099              	.L171:
 2100              		.loc 1 300 0
 2101 01b8 FFF7FEFF 		bl	test_wait_threads
 2102              	.LVL204:
 2103              	.LBE351:
 2104              	.LBE365:
 2105              		.loc 1 368 0
 2106 01bc 99F80030 		ldrb	r3, [r9]	@ zero_extendqisi2
 2107 01c0 002B     		cmp	r3, #0
 2108 01c2 33D0     		beq	.L172
 2109 01c4 484D     		ldr	r5, .L215+120
ARM GAS  C:\Users\Valentin\AppData\Local\Temp\cczt6AAz.s 			page 38


 2110              	.LBB366:
 2111              	.LBB367:
 2112              		.loc 1 115 0
 2113 01c6 2D21     		movs	r1, #45
 2114              	.L173:
 2115              	.LVL205:
 2116              		.loc 1 116 0
 2117 01c8 2068     		ldr	r0, [r4]
 2118 01ca 0368     		ldr	r3, [r0]
 2119 01cc 9B68     		ldr	r3, [r3, #8]
 2120 01ce 9847     		blx	r3
 2121              	.LVL206:
 2122              		.loc 1 115 0
 2123 01d0 15F8011F 		ldrb	r1, [r5, #1]!	@ zero_extendqisi2
 2124              	.LVL207:
 2125 01d4 0029     		cmp	r1, #0
 2126 01d6 F7D1     		bne	.L173
 2127              	.LVL208:
 2128              	.LBE367:
 2129              	.LBE366:
 2130              		.loc 1 370 0
 2131 01d8 444B     		ldr	r3, .L215+124
 2132 01da 454D     		ldr	r5, .L215+128
 2133 01dc 1868     		ldr	r0, [r3]
 2134 01de FFF7FEFF 		bl	test_printn
 2135              	.LVL209:
 2136              	.LBB368:
 2137              	.LBB369:
 2138              		.loc 1 115 0
 2139 01e2 2021     		movs	r1, #32
 2140              	.LVL210:
 2141              	.L174:
 2142              		.loc 1 116 0
 2143 01e4 2068     		ldr	r0, [r4]
 2144 01e6 0368     		ldr	r3, [r0]
 2145 01e8 9B68     		ldr	r3, [r3, #8]
 2146 01ea 9847     		blx	r3
 2147              	.LVL211:
 2148              		.loc 1 115 0
 2149 01ec 15F8011F 		ldrb	r1, [r5, #1]!	@ zero_extendqisi2
 2150              	.LVL212:
 2151 01f0 0029     		cmp	r1, #0
 2152 01f2 F7D1     		bne	.L174
 2153              	.LVL213:
 2154              	.LBE369:
 2155              	.LBE368:
 2156              	.LBB370:
 2157              	.LBB371:
 2158              		.loc 1 141 0
 2159 01f4 3B68     		ldr	r3, [r7]
 2160 01f6 5345     		cmp	r3, r10
 2161 01f8 09D9     		bls	.L175
 2162              		.loc 1 139 0
 2163 01fa 3E4D     		ldr	r5, .L215+132
 2164              	.LVL214:
 2165              	.L176:
 2166              		.loc 1 142 0
ARM GAS  C:\Users\Valentin\AppData\Local\Temp\cczt6AAz.s 			page 39


 2167 01fc 2068     		ldr	r0, [r4]
 2168 01fe 15F8011B 		ldrb	r1, [r5], #1	@ zero_extendqisi2
 2169              	.LVL215:
 2170 0202 0368     		ldr	r3, [r0]
 2171 0204 9B68     		ldr	r3, [r3, #8]
 2172 0206 9847     		blx	r3
 2173              	.LVL216:
 2174              		.loc 1 141 0
 2175 0208 3B68     		ldr	r3, [r7]
 2176 020a 9D42     		cmp	r5, r3
 2177 020c F6D3     		bcc	.L176
 2178              	.LVL217:
 2179              	.L175:
 2180              	.LBE371:
 2181              	.LBE370:
 2182              		.loc 1 373 0
 2183 020e 3A48     		ldr	r0, .L215+136
 2184 0210 FFF7FEFF 		bl	test_println
 2185              	.LVL218:
 2186              		.loc 1 355 0
 2187 0214 3368     		ldr	r3, [r6]
 2188 0216 002B     		cmp	r3, #0
 2189 0218 84D1     		bne	.L178
 2190              	.L213:
 2191              	.LVL219:
 2192              		.loc 1 353 0
 2193 021a 019E     		ldr	r6, [sp, #4]
 2194 021c 56B1     		cbz	r6, .L179
 2195              		.loc 1 379 0
 2196 021e 029B     		ldr	r3, [sp, #8]
 2197 0220 1A46     		mov	r2, r3
 2198 0222 52F8043F 		ldr	r3, [r2, #4]!
 2199 0226 0193     		str	r3, [sp, #4]
 2200 0228 0292     		str	r2, [sp, #8]
 2201 022a 74E7     		b	.L165
 2202              	.LVL220:
 2203              	.L172:
 2204              		.loc 1 376 0
 2205 022c 3348     		ldr	r0, .L215+140
 2206 022e FFF7FEFF 		bl	test_println
 2207              	.LVL221:
 2208 0232 74E7     		b	.L180
 2209              	.LVL222:
 2210              	.L179:
 2211              		.loc 1 381 0
 2212 0234 FFF7FEFF 		bl	print_line
 2213              	.LVL223:
 2214              		.loc 1 382 0
 2215 0238 314D     		ldr	r5, .L215+144
 2216 023a 0F48     		ldr	r0, .L215+8
 2217 023c FFF7FEFF 		bl	test_println
 2218              	.LVL224:
 2219              	.LBB372:
 2220              	.LBB373:
 2221              		.loc 1 115 0
 2222 0240 4621     		movs	r1, #70
 2223              	.LVL225:
ARM GAS  C:\Users\Valentin\AppData\Local\Temp\cczt6AAz.s 			page 40


 2224              	.L181:
 2225              		.loc 1 116 0
 2226 0242 2068     		ldr	r0, [r4]
 2227 0244 0368     		ldr	r3, [r0]
 2228 0246 9B68     		ldr	r3, [r3, #8]
 2229 0248 9847     		blx	r3
 2230              	.LVL226:
 2231              		.loc 1 115 0
 2232 024a 15F8011F 		ldrb	r1, [r5, #1]!	@ zero_extendqisi2
 2233              	.LVL227:
 2234 024e 0029     		cmp	r1, #0
 2235 0250 F7D1     		bne	.L181
 2236              	.LVL228:
 2237              	.LBE373:
 2238              	.LBE372:
 2239              		.loc 1 384 0
 2240 0252 204B     		ldr	r3, .L215+100
 2241              		.loc 1 385 0
 2242 0254 059A     		ldr	r2, [sp, #20]
 2243              		.loc 1 384 0
 2244 0256 1B78     		ldrb	r3, [r3]	@ zero_extendqisi2
 2245 0258 002B     		cmp	r3, #0
 2246 025a 57D1     		bne	.L214
 2247              		.loc 1 387 0
 2248 025c 044B     		ldr	r3, .L215
 2249 025e 1B68     		ldr	r3, [r3]
 2250 0260 9A42     		cmp	r2, r3
 2251 0262 5DD1     		bne	.L212
 2252 0264 2748     		ldr	r0, .L215+148
 2253              		.loc 1 388 0
 2254 0266 07B0     		add	sp, sp, #28
 2255              		.cfi_remember_state
 2256              		.cfi_def_cfa_offset 36
 2257              		@ sp needed
 2258 0268 BDE8F04F 		pop	{r4, r5, r6, r7, r8, r9, r10, fp, lr}
 2259              		.cfi_restore 14
 2260              		.cfi_restore 11
 2261              		.cfi_restore 10
 2262              		.cfi_restore 9
 2263              		.cfi_restore 8
 2264              		.cfi_restore 7
 2265              		.cfi_restore 6
 2266              		.cfi_restore 5
 2267              		.cfi_restore 4
 2268              		.cfi_def_cfa_offset 0
 2269              	.LVL229:
 2270              		.loc 1 387 0
 2271 026c FFF7FEBF 		b	test_println
 2272              	.LVL230:
 2273              	.L216:
 2274              		.align	2
 2275              	.L215:
 2276 0270 00000000 		.word	__stack_chk_guard
 2277 0274 00000000 		.word	.LANCHOR1
 2278 0278 E0000000 		.word	.LC14
 2279 027c E4000000 		.word	.LC15
 2280 0280 00000000 		.word	.LC1
ARM GAS  C:\Users\Valentin\AppData\Local\Temp\cczt6AAz.s 			page 41


 2281 0284 00010000 		.word	.LC16
 2282 0288 04010000 		.word	.LC17
 2283 028c 14000000 		.word	.LC2
 2284 0290 0C010000 		.word	.LC18
 2285 0294 28000000 		.word	.LC3
 2286 0298 24010000 		.word	.LC19
 2287 029c 3C000000 		.word	.LC4
 2288 02a0 6C010000 		.word	.LC20
 2289 02a4 50000000 		.word	.LC5
 2290 02a8 78010000 		.word	.LC21
 2291 02ac 64000000 		.word	.LC6
 2292 02b0 84010000 		.word	.LC22
 2293 02b4 78000000 		.word	.LC7
 2294 02b8 9C010000 		.word	.LC23
 2295 02bc 8C000000 		.word	.LC8
 2296 02c0 04000000 		.word	.LANCHOR10+4
 2297 02c4 C8010000 		.word	.LC24
 2298 02c8 00000000 		.word	patternthd
 2299 02cc 00000000 		.word	.LANCHOR2
 2300 02d0 00000000 		.word	patternsys
 2301 02d4 00000000 		.word	.LANCHOR4
 2302 02d8 A0000000 		.word	.LC9
 2303 02dc B0000000 		.word	.LC10
 2304 02e0 EC010000 		.word	.LC25
 2305 02e4 00000000 		.word	.LANCHOR8
 2306 02e8 B4000000 		.word	.LC11
 2307 02ec 00000000 		.word	.LANCHOR6
 2308 02f0 CC000000 		.word	.LC12
 2309 02f4 00000000 		.word	.LANCHOR7
 2310 02f8 F0010000 		.word	.LC26
 2311 02fc F4010000 		.word	.LC27
 2312 0300 D0000000 		.word	.LC13
 2313 0304 10020000 		.word	.LC29
 2314 0308 00000000 		.word	.LANCHOR5
 2315              	.LVL231:
 2316              	.L214:
 2317              		.cfi_restore_state
 2318              		.loc 1 385 0
 2319 030c 054B     		ldr	r3, .L217
 2320 030e 1B68     		ldr	r3, [r3]
 2321 0310 9A42     		cmp	r2, r3
 2322 0312 05D1     		bne	.L212
 2323 0314 0448     		ldr	r0, .L217+4
 2324              		.loc 1 388 0
 2325 0316 07B0     		add	sp, sp, #28
 2326              		.cfi_remember_state
 2327              		.cfi_def_cfa_offset 36
 2328              		@ sp needed
 2329 0318 BDE8F04F 		pop	{r4, r5, r6, r7, r8, r9, r10, fp, lr}
 2330              		.cfi_restore 14
 2331              		.cfi_restore 11
 2332              		.cfi_restore 10
 2333              		.cfi_restore 9
 2334              		.cfi_restore 8
 2335              		.cfi_restore 7
 2336              		.cfi_restore 6
 2337              		.cfi_restore 5
ARM GAS  C:\Users\Valentin\AppData\Local\Temp\cczt6AAz.s 			page 42


 2338              		.cfi_restore 4
 2339              		.cfi_def_cfa_offset 0
 2340              	.LVL232:
 2341              		.loc 1 387 0
 2342 031c FFF7FEBF 		b	test_println
 2343              	.LVL233:
 2344              	.L212:
 2345              		.cfi_restore_state
 2346 0320 FFF7FEFF 		bl	__stack_chk_fail
 2347              	.LVL234:
 2348              	.L218:
 2349              		.align	2
 2350              	.L217:
 2351 0324 00000000 		.word	__stack_chk_guard
 2352 0328 08020000 		.word	.LC28
 2353              		.cfi_endproc
 2354              	.LFE274:
 2355              		.size	TestThread, .-TestThread
 2356              		.global	test_timer_done
 2357              		.global	wa
 2358              		.global	threads
 2359              		.global	test
 2360              		.global	test_global_fail
 2361              		.section	.bss.chp,"aw",%nobits
 2362              		.align	2
 2363              		.set	.LANCHOR1,. + 0
 2364              		.type	chp, %object
 2365              		.size	chp, 4
 2366              	chp:
 2367 0000 00000000 		.space	4
 2368              		.section	.bss.failpoint,"aw",%nobits
 2369              		.align	2
 2370              		.set	.LANCHOR6,. + 0
 2371              		.type	failpoint, %object
 2372              		.size	failpoint, 4
 2373              	failpoint:
 2374 0000 00000000 		.space	4
 2375              		.section	.bss.local_fail,"aw",%nobits
 2376              		.set	.LANCHOR5,. + 0
 2377              		.type	local_fail, %object
 2378              		.size	local_fail, 1
 2379              	local_fail:
 2380 0000 00       		.space	1
 2381              		.section	.bss.test,"aw",%nobits
 2382              		.align	3
 2383              		.type	test, %object
 2384              		.size	test, 2520
 2385              	test:
 2386 0000 00000000 		.space	2520
 2386      00000000 
 2386      00000000 
 2386      00000000 
 2386      00000000 
 2387              		.section	.bss.test_global_fail,"aw",%nobits
 2388              		.set	.LANCHOR4,. + 0
 2389              		.type	test_global_fail, %object
 2390              		.size	test_global_fail, 1
ARM GAS  C:\Users\Valentin\AppData\Local\Temp\cczt6AAz.s 			page 43


 2391              	test_global_fail:
 2392 0000 00       		.space	1
 2393              		.section	.bss.test_timer_done,"aw",%nobits
 2394              		.set	.LANCHOR0,. + 0
 2395              		.type	test_timer_done, %object
 2396              		.size	test_timer_done, 1
 2397              	test_timer_done:
 2398 0000 00       		.space	1
 2399              		.section	.bss.threads,"aw",%nobits
 2400              		.align	2
 2401              		.set	.LANCHOR8,. + 0
 2402              		.type	threads, %object
 2403              		.size	threads, 20
 2404              	threads:
 2405 0000 00000000 		.space	20
 2405      00000000 
 2405      00000000 
 2405      00000000 
 2405      00000000 
 2406              		.section	.bss.tokens_buffer,"aw",%nobits
 2407              		.align	2
 2408              		.set	.LANCHOR7,. + 0
 2409              		.type	tokens_buffer, %object
 2410              		.size	tokens_buffer, 16
 2411              	tokens_buffer:
 2412 0000 00000000 		.space	16
 2412      00000000 
 2412      00000000 
 2412      00000000 
 2413              		.section	.bss.tokp,"aw",%nobits
 2414              		.align	2
 2415              		.set	.LANCHOR2,. + 0
 2416              		.type	tokp, %object
 2417              		.size	tokp, 4
 2418              	tokp:
 2419 0000 00000000 		.space	4
 2420              		.section	.bss.vt,"aw",%nobits
 2421              		.align	2
 2422              		.set	.LANCHOR9,. + 0
 2423              		.type	vt, %object
 2424              		.size	vt, 20
 2425              	vt:
 2426 0000 00000000 		.space	20
 2426      00000000 
 2426      00000000 
 2426      00000000 
 2426      00000000 
 2427              		.section	.rodata.TestThread.str1.4,"aMS",%progbits,1
 2428              		.align	2
 2429              	.LC1:
 2430 0000 2A2A2A20 		.ascii	"*** Kernel:       \000"
 2430      4B65726E 
 2430      656C3A20 
 2430      20202020 
 2430      202000
 2431 0013 00       		.space	1
 2432              	.LC2:
ARM GAS  C:\Users\Valentin\AppData\Local\Temp\cczt6AAz.s 			page 44


 2433 0014 2A2A2A20 		.ascii	"*** Compiled:     \000"
 2433      436F6D70 
 2433      696C6564 
 2433      3A202020 
 2433      202000
 2434 0027 00       		.space	1
 2435              	.LC3:
 2436 0028 2A2A2A20 		.ascii	"*** Compiler:     \000"
 2436      436F6D70 
 2436      696C6572 
 2436      3A202020 
 2436      202000
 2437 003b 00       		.space	1
 2438              	.LC4:
 2439 003c 2A2A2A20 		.ascii	"*** Architecture: \000"
 2439      41726368 
 2439      69746563 
 2439      74757265 
 2439      3A2000
 2440 004f 00       		.space	1
 2441              	.LC5:
 2442 0050 2A2A2A20 		.ascii	"*** Core Variant: \000"
 2442      436F7265 
 2442      20566172 
 2442      69616E74 
 2442      3A2000
 2443 0063 00       		.space	1
 2444              	.LC6:
 2445 0064 2A2A2A20 		.ascii	"*** Port Info:    \000"
 2445      506F7274 
 2445      20496E66 
 2445      6F3A2020 
 2445      202000
 2446 0077 00       		.space	1
 2447              	.LC7:
 2448 0078 2A2A2A20 		.ascii	"*** Platform:     \000"
 2448      506C6174 
 2448      666F726D 
 2448      3A202020 
 2448      202000
 2449 008b 00       		.space	1
 2450              	.LC8:
 2451 008c 2A2A2A20 		.ascii	"*** Test Board:   \000"
 2451      54657374 
 2451      20426F61 
 2451      72643A20 
 2451      202000
 2452 009f 00       		.space	1
 2453              	.LC9:
 2454 00a0 2D2D2D20 		.ascii	"--- Test Case \000"
 2454      54657374 
 2454      20436173 
 2454      652000
 2455 00af 00       		.space	1
 2456              	.LC10:
 2457 00b0 202800   		.ascii	" (\000"
 2458 00b3 00       		.space	1
ARM GAS  C:\Users\Valentin\AppData\Local\Temp\cczt6AAz.s 			page 45


 2459              	.LC11:
 2460 00b4 2D2D2D20 		.ascii	"--- Result: FAILURE (#\000"
 2460      52657375 
 2460      6C743A20 
 2460      4641494C 
 2460      55524520 
 2461 00cb 00       		.space	1
 2462              	.LC12:
 2463 00cc 205B00   		.ascii	" [\000"
 2464 00cf 00       		.space	1
 2465              	.LC13:
 2466 00d0 46696E61 		.ascii	"Final result: \000"
 2466      6C207265 
 2466      73756C74 
 2466      3A2000
 2467 00df 00       		.space	1
 2468              	.LC14:
 2469 00e0 00       		.ascii	"\000"
 2470 00e1 000000   		.space	3
 2471              	.LC15:
 2472 00e4 2A2A2A20 		.ascii	"*** ChibiOS/RT test suite\000"
 2472      43686962 
 2472      694F532F 
 2472      52542074 
 2472      65737420 
 2473 00fe 0000     		.space	2
 2474              	.LC16:
 2475 0100 2A2A2A00 		.ascii	"***\000"
 2476              	.LC17:
 2477 0104 332E302E 		.ascii	"3.0.0\000"
 2477      3000
 2478 010a 0000     		.space	2
 2479              	.LC18:
 2480 010c 4D617920 		.ascii	"May  6 2022 - 17:25:55\000"
 2480      20362032 
 2480      30323220 
 2480      2D203137 
 2480      3A32353A 
 2481 0123 00       		.space	1
 2482              	.LC19:
 2483 0124 47434320 		.ascii	"GCC 7.2.1 20170904 (release) [ARM/embedded-7-branch"
 2483      372E322E 
 2483      31203230 
 2483      31373039 
 2483      30342028 
 2484 0157 20726576 		.ascii	" revision 255204]\000"
 2484      6973696F 
 2484      6E203235 
 2484      35323034 
 2484      5D00
 2485 0169 000000   		.space	3
 2486              	.LC20:
 2487 016c 41524D76 		.ascii	"ARMv7-ME\000"
 2487      372D4D45 
 2487      00
 2488 0175 000000   		.space	3
 2489              	.LC21:
ARM GAS  C:\Users\Valentin\AppData\Local\Temp\cczt6AAz.s 			page 46


 2490 0178 436F7274 		.ascii	"Cortex-M4F\000"
 2490      65782D4D 
 2490      344600
 2491 0183 00       		.space	1
 2492              	.LC22:
 2493 0184 41647661 		.ascii	"Advanced kernel mode\000"
 2493      6E636564 
 2493      206B6572 
 2493      6E656C20 
 2493      6D6F6465 
 2494 0199 000000   		.space	3
 2495              	.LC23:
 2496 019c 53544D33 		.ascii	"STM32F407 High Performance with DSP and FPU\000"
 2496      32463430 
 2496      37204869 
 2496      67682050 
 2496      6572666F 
 2497              	.LC24:
 2498 01c8 47435472 		.ascii	"GCTronic-MobotsEPFL e-puck V2.0_F\000"
 2498      6F6E6963 
 2498      2D4D6F62 
 2498      6F747345 
 2498      50464C20 
 2499 01ea 0000     		.space	2
 2500              	.LC25:
 2501 01ec 2900     		.ascii	")\000"
 2502 01ee 0000     		.space	2
 2503              	.LC26:
 2504 01f0 5D2900   		.ascii	"])\000"
 2505 01f3 00       		.space	1
 2506              	.LC27:
 2507 01f4 2D2D2D20 		.ascii	"--- Result: SUCCESS\000"
 2507      52657375 
 2507      6C743A20 
 2507      53554343 
 2507      45535300 
 2508              	.LC28:
 2509 0208 4641494C 		.ascii	"FAILURE\000"
 2509      55524500 
 2510              	.LC29:
 2511 0210 53554343 		.ascii	"SUCCESS\000"
 2511      45535300 
 2512              		.section	.rodata.__func__.7153,"a",%progbits
 2513              		.align	2
 2514              		.set	.LANCHOR3,. + 0
 2515              		.type	__func__.7153, %object
 2516              		.size	__func__.7153, 12
 2517              	__func__.7153:
 2518 0000 63685379 		.ascii	"chSysUnlock\000"
 2518      73556E6C 
 2518      6F636B00 
 2519              		.section	.rodata.patterns,"a",%progbits
 2520              		.align	2
 2521              		.set	.LANCHOR10,. + 0
 2522              		.type	patterns, %object
 2523              		.size	patterns, 52
 2524              	patterns:
ARM GAS  C:\Users\Valentin\AppData\Local\Temp\cczt6AAz.s 			page 47


 2525 0000 00000000 		.word	patternsys
 2526 0004 00000000 		.word	patternthd
 2527 0008 00000000 		.word	patternsem
 2528 000c 00000000 		.word	patternmtx
 2529 0010 00000000 		.word	patternmsg
 2530 0014 00000000 		.word	patternmbox
 2531 0018 00000000 		.word	patternevt
 2532 001c 00000000 		.word	patternheap
 2533 0020 00000000 		.word	patternpools
 2534 0024 00000000 		.word	patterndyn
 2535 0028 00000000 		.word	patternqueues
 2536 002c 00000000 		.word	patternbmk
 2537 0030 00000000 		.word	0
 2538              		.section	.rodata.print_line.str1.4,"aMS",%progbits,1
 2539              		.align	2
 2540              	.LC0:
 2541 0000 0D0A00   		.ascii	"\015\012\000"
 2542              		.section	.rodata.wa,"a",%progbits
 2543              		.align	2
 2544              		.type	wa, %object
 2545              		.size	wa, 20
 2546              	wa:
 2547 0000 00000000 		.word	test
 2548 0004 F8010000 		.word	test+504
 2549 0008 F0030000 		.word	test+1008
 2550 000c E8050000 		.word	test+1512
 2551 0010 E0070000 		.word	test+2016
 2552              		.text
 2553              	.Letext0:
 2554              		.file 6 "c:\\users\\valentin\\desktop\\eclipse_e-puck2\\tools\\gcc-arm-none-eabi-7-2017-q4-major-w
 2555              		.file 7 "c:\\users\\valentin\\desktop\\eclipse_e-puck2\\tools\\gcc-arm-none-eabi-7-2017-q4-major-w
 2556              		.file 8 "c:\\users\\valentin\\desktop\\eclipse_e-puck2\\tools\\gcc-arm-none-eabi-7-2017-q4-major-w
 2557              		.file 9 "../e-puck2_main-processor/ChibiOS//os/rt/ports/ARMCMx/compilers/GCC/chtypes.h"
 2558              		.file 10 "../e-puck2_main-processor/ChibiOS//os/rt/include/chsystypes.h"
 2559              		.file 11 "../e-puck2_main-processor/ChibiOS//os/rt/include/chschd.h"
 2560              		.file 12 "../e-puck2_main-processor/ChibiOS//os/ext/CMSIS/include/core_cm4.h"
 2561              		.file 13 "../e-puck2_main-processor/ChibiOS//os/ext/CMSIS/ST/system_stm32f4xx.h"
 2562              		.file 14 "../e-puck2_main-processor/ChibiOS//os/ext/CMSIS/ST/stm32f407xx.h"
 2563              		.file 15 "../e-puck2_main-processor/ChibiOS//os/rt/ports/ARMCMx/chcore.h"
 2564              		.file 16 "../e-puck2_main-processor/ChibiOS//os/rt/ports/ARMCMx/chcore_v7m.h"
 2565              		.file 17 "../e-puck2_main-processor/ChibiOS//os/rt/include/chdebug.h"
 2566              		.file 18 "../e-puck2_main-processor/ChibiOS//os/rt/include/chtm.h"
 2567              		.file 19 "../e-puck2_main-processor/ChibiOS//os/rt/include/chstats.h"
 2568              		.file 20 "../e-puck2_main-processor/ChibiOS//os/rt/include/chsem.h"
 2569              		.file 21 "../e-puck2_main-processor/ChibiOS//os/rt/include/chmtx.h"
 2570              		.file 22 "../e-puck2_main-processor/ChibiOS//os/rt/include/chregistry.h"
 2571              		.file 23 "../e-puck2_main-processor/ChibiOS//os/rt/include/chevents.h"
 2572              		.file 24 "../e-puck2_main-processor/ChibiOS//os/rt/include/chqueues.h"
 2573              		.file 25 "../e-puck2_main-processor/ChibiOS//os/rt/include/chstreams.h"
 2574              		.file 26 "../e-puck2_main-processor/ChibiOS//os/hal/ports/STM32/STM32F4xx/stm32_dma.h"
 2575              		.file 27 "../e-puck2_main-processor/ChibiOS//os/hal/include/hal_ioblock.h"
 2576              		.file 28 "../e-puck2_main-processor/ChibiOS//os/hal/ports/STM32/LLD/GPIOv2/pal_lld.h"
 2577              		.file 29 "../e-puck2_main-processor/ChibiOS//os/hal/include/adc.h"
 2578              		.file 30 "../e-puck2_main-processor/ChibiOS//os/hal/ports/STM32/STM32F4xx/adc_lld.h"
 2579              		.file 31 "../e-puck2_main-processor/ChibiOS//os/hal/include/can.h"
 2580              		.file 32 "../e-puck2_main-processor/ChibiOS//os/hal/ports/STM32/LLD/can_lld.h"
 2581              		.file 33 "../e-puck2_main-processor/ChibiOS//os/hal/include/dac.h"
ARM GAS  C:\Users\Valentin\AppData\Local\Temp\cczt6AAz.s 			page 48


 2582              		.file 34 "../e-puck2_main-processor/ChibiOS//os/hal/ports/STM32/LLD/DACv1/dac_lld.h"
 2583              		.file 35 "../e-puck2_main-processor/ChibiOS//os/hal/include/ext.h"
 2584              		.file 36 "../e-puck2_main-processor/ChibiOS//os/hal/ports/STM32/LLD/ext_lld.h"
 2585              		.file 37 "../e-puck2_main-processor/ChibiOS//os/hal/include/gpt.h"
 2586              		.file 38 "../e-puck2_main-processor/ChibiOS//os/hal/ports/STM32/LLD/TIMv1/gpt_lld.h"
 2587              		.file 39 "../e-puck2_main-processor/ChibiOS//os/hal/ports/STM32/LLD/TIMv1/stm32_tim.h"
 2588              		.file 40 "../e-puck2_main-processor/ChibiOS//os/hal/include/i2c.h"
 2589              		.file 41 "../e-puck2_main-processor/ChibiOS//os/hal/ports/STM32/LLD/I2Cv1/i2c_lld.h"
 2590              		.file 42 "../e-puck2_main-processor/ChibiOS//os/hal/include/i2s.h"
 2591              		.file 43 "../e-puck2_main-processor/ChibiOS//os/hal/ports/STM32/LLD/SPIv1/i2s_lld.h"
 2592              		.file 44 "../e-puck2_main-processor/ChibiOS//os/hal/include/pwm.h"
 2593              		.file 45 "../e-puck2_main-processor/ChibiOS//os/hal/ports/STM32/LLD/TIMv1/pwm_lld.h"
 2594              		.file 46 "../e-puck2_main-processor/ChibiOS//os/hal/include/serial.h"
 2595              		.file 47 "../e-puck2_main-processor/ChibiOS//os/hal/ports/STM32/LLD/USARTv1/serial_lld.h"
 2596              		.file 48 "../e-puck2_main-processor/ChibiOS//os/hal/include/sdc.h"
 2597              		.file 49 "../e-puck2_main-processor/ChibiOS//os/hal/ports/STM32/LLD/sdc_lld.h"
 2598              		.file 50 "../e-puck2_main-processor/ChibiOS//os/hal/include/spi.h"
 2599              		.file 51 "../e-puck2_main-processor/ChibiOS//os/hal/ports/STM32/LLD/SPIv1/spi_lld.h"
 2600              		.file 52 "../e-puck2_main-processor/ChibiOS//os/hal/include/usb.h"
 2601              		.file 53 "../e-puck2_main-processor/ChibiOS//os/hal/ports/STM32/LLD/OTGv1/usb_lld.h"
 2602              		.file 54 "../e-puck2_main-processor/ChibiOS//os/hal/ports/STM32/LLD/OTGv1/stm32_otg.h"
 2603              		.file 55 "../e-puck2_main-processor/ChibiOS//test/rt/test.h"
 2604              		.file 56 "../e-puck2_main-processor/ChibiOS//test/rt/testsys.h"
 2605              		.file 57 "../e-puck2_main-processor/ChibiOS//test/rt/testthd.h"
 2606              		.file 58 "../e-puck2_main-processor/ChibiOS//test/rt/testsem.h"
 2607              		.file 59 "../e-puck2_main-processor/ChibiOS//test/rt/testmtx.h"
 2608              		.file 60 "../e-puck2_main-processor/ChibiOS//test/rt/testmsg.h"
 2609              		.file 61 "../e-puck2_main-processor/ChibiOS//test/rt/testmbox.h"
 2610              		.file 62 "../e-puck2_main-processor/ChibiOS//test/rt/testevt.h"
 2611              		.file 63 "../e-puck2_main-processor/ChibiOS//test/rt/testheap.h"
 2612              		.file 64 "../e-puck2_main-processor/ChibiOS//test/rt/testpools.h"
 2613              		.file 65 "../e-puck2_main-processor/ChibiOS//test/rt/testdyn.h"
 2614              		.file 66 "../e-puck2_main-processor/ChibiOS//test/rt/testqueues.h"
 2615              		.file 67 "../e-puck2_main-processor/ChibiOS//test/rt/testbmk.h"