ARM GAS  C:\Users\Valentin\AppData\Local\Temp\cczYdxCS.s 			page 1


   1              		.cpu cortex-m4
   2              		.eabi_attribute 27, 1
   3              		.eabi_attribute 28, 1
   4              		.eabi_attribute 20, 1
   5              		.eabi_attribute 21, 1
   6              		.eabi_attribute 23, 3
   7              		.eabi_attribute 24, 1
   8              		.eabi_attribute 25, 1
   9              		.eabi_attribute 26, 1
  10              		.eabi_attribute 30, 2
  11              		.eabi_attribute 34, 1
  12              		.eabi_attribute 18, 4
  13              		.file	"threadMotor.c"
  14              		.text
  15              	.Ltext0:
  16              		.cfi_sections	.debug_frame
  17              		.section	.text.chprintf.constprop.0,"ax",%progbits
  18              		.align	1
  19              		.p2align 4,,15
  20              		.syntax unified
  21              		.thumb
  22              		.thumb_func
  23              		.fpu fpv4-sp-d16
  24              		.type	chprintf.constprop.0, %function
  25              	chprintf.constprop.0:
  26              	.LFB262:
  27              		.file 1 "../e-puck2_main-processor/ChibiOS//os/hal/lib/streams/chprintf.h"
  28              		.loc 1 69 0
  29              		.cfi_startproc
  30              		@ args = 4, pretend = 12, frame = 8
  31              		@ frame_needed = 0, uses_anonymous_args = 1
  32              	.LVL0:
  33 0000 0EB4     		push	{r1, r2, r3}
  34              		.cfi_def_cfa_offset 12
  35              		.cfi_offset 1, -12
  36              		.cfi_offset 2, -8
  37              		.cfi_offset 3, -4
  38 0002 10B5     		push	{r4, lr}
  39              		.cfi_def_cfa_offset 20
  40              		.cfi_offset 4, -20
  41              		.cfi_offset 14, -16
  42 0004 0A4C     		ldr	r4, .L6
  43              		.loc 1 74 0
  44 0006 0B49     		ldr	r1, .L6+4
  45              		.loc 1 69 0
  46 0008 2368     		ldr	r3, [r4]
  47              		.loc 1 74 0
  48 000a 0B48     		ldr	r0, .L6+8
  49              	.LVL1:
  50              		.loc 1 69 0
  51 000c 83B0     		sub	sp, sp, #12
  52              		.cfi_def_cfa_offset 32
  53              		.loc 1 69 0
  54 000e 0193     		str	r3, [sp, #4]
  55              	.LVL2:
  56              		.loc 1 73 0
  57 0010 06AB     		add	r3, sp, #24
ARM GAS  C:\Users\Valentin\AppData\Local\Temp\cczYdxCS.s 			page 2


  58              		.loc 1 74 0
  59 0012 1A46     		mov	r2, r3
  60              		.loc 1 73 0
  61 0014 0093     		str	r3, [sp]
  62              		.loc 1 74 0
  63 0016 FFF7FEFF 		bl	chvprintf
  64              	.LVL3:
  65              		.loc 1 78 0
  66 001a 019A     		ldr	r2, [sp, #4]
  67 001c 2368     		ldr	r3, [r4]
  68 001e 9A42     		cmp	r2, r3
  69 0020 04D1     		bne	.L5
  70 0022 03B0     		add	sp, sp, #12
  71              		.cfi_remember_state
  72              		.cfi_def_cfa_offset 20
  73              		@ sp needed
  74 0024 BDE81040 		pop	{r4, lr}
  75              		.cfi_restore 14
  76              		.cfi_restore 4
  77              		.cfi_def_cfa_offset 12
  78 0028 03B0     		add	sp, sp, #12
  79              		.cfi_restore 3
  80              		.cfi_restore 2
  81              		.cfi_restore 1
  82              		.cfi_def_cfa_offset 0
  83 002a 7047     		bx	lr
  84              	.L5:
  85              		.cfi_restore_state
  86 002c FFF7FEFF 		bl	__stack_chk_fail
  87              	.LVL4:
  88              	.L7:
  89              		.align	2
  90              	.L6:
  91 0030 00000000 		.word	__stack_chk_guard
  92 0034 00000000 		.word	.LC0
  93 0038 00000000 		.word	SD3
  94              		.cfi_endproc
  95              	.LFE262:
  96              		.size	chprintf.constprop.0, .-chprintf.constprop.0
  97              		.section	.text.ThdExplore,"ax",%progbits
  98              		.align	1
  99              		.p2align 4,,15
 100              		.syntax unified
 101              		.thumb
 102              		.thumb_func
 103              		.fpu fpv4-sp-d16
 104              		.type	ThdExplore, %function
 105              	ThdExplore:
 106              	.LFB260:
 107              		.file 2 "threadMotor.c"
 108              		.loc 2 24 0
 109              		.cfi_startproc
 110              		@ args = 0, pretend = 0, frame = 8
 111              		@ frame_needed = 0, uses_anonymous_args = 0
 112              	.LVL5:
 113 0000 70B5     		push	{r4, r5, r6, lr}
 114              		.cfi_def_cfa_offset 16
ARM GAS  C:\Users\Valentin\AppData\Local\Temp\cczYdxCS.s 			page 3


 115              		.cfi_offset 4, -16
 116              		.cfi_offset 5, -12
 117              		.cfi_offset 6, -8
 118              		.cfi_offset 14, -4
 119              	.LBB6:
 120              	.LBB7:
 121              		.file 3 "../e-puck2_main-processor/ChibiOS//os/rt/include/chregistry.h"
 122              		.loc 3 135 0
 123 0002 2B4A     		ldr	r2, .L20
 124              	.LBE7:
 125              	.LBE6:
 126              		.loc 2 24 0
 127 0004 2B4B     		ldr	r3, .L20+4
 128              	.LBB10:
 129              	.LBB8:
 130              		.loc 3 135 0
 131 0006 9269     		ldr	r2, [r2, #24]
 132 0008 2B49     		ldr	r1, .L20+8
 133              	.LBE8:
 134              	.LBE10:
 135              		.loc 2 24 0
 136 000a 1B68     		ldr	r3, [r3]
 137              	.LBB11:
 138              		.loc 2 32 0
 139 000c 2B4E     		ldr	r6, .L20+12
 140 000e 2C4D     		ldr	r5, .L20+16
 141              	.LBE11:
 142              	.LBB14:
 143              	.LBB9:
 144              		.loc 3 135 0
 145 0010 9161     		str	r1, [r2, #24]
 146              	.LBE9:
 147              	.LBE14:
 148              		.loc 2 24 0
 149 0012 82B0     		sub	sp, sp, #8
 150              		.cfi_def_cfa_offset 24
 151              		.loc 2 24 0
 152 0014 0193     		str	r3, [sp, #4]
 153              	.LVL6:
 154 0016 06E0     		b	.L14
 155              	.LVL7:
 156              	.L18:
 157              	.LBB15:
 158              		.loc 2 38 0
 159 0018 40F22620 		movw	r0, #550
 160 001c FFF7FEFF 		bl	go_straight
 161              	.LVL8:
 162              	.L10:
 163              		.loc 2 65 0
 164 0020 C820     		movs	r0, #200
 165 0022 FFF7FEFF 		bl	chThdSleep
 166              	.LVL9:
 167              	.L14:
 168              		.loc 2 31 0
 169 0026 FFF7FEFF 		bl	VL53L0X_get_dist_mm
 170              	.LVL10:
 171              		.loc 2 32 0
ARM GAS  C:\Users\Valentin\AppData\Local\Temp\cczYdxCS.s 			page 4


 172 002a 3146     		mov	r1, r6
 173              		.loc 2 31 0
 174 002c 0446     		mov	r4, r0
 175              	.LVL11:
 176              		.loc 2 32 0
 177 002e 0246     		mov	r2, r0
 178 0030 2846     		mov	r0, r5
 179              	.LVL12:
 180 0032 FFF7FEFF 		bl	chprintf.constprop.0
 181              	.LVL13:
 182              		.loc 2 34 0
 183 0036 962C     		cmp	r4, #150
 184 0038 23DC     		bgt	.L17
 185              		.loc 2 37 0
 186 003a 333C     		subs	r4, r4, #51
 187              	.LVL14:
 188 003c 622C     		cmp	r4, #98
 189 003e EBD9     		bls	.L18
 190              	.LBB12:
 191              		.loc 2 41 0
 192 0040 FFF7FEFF 		bl	stopMotors
 193              	.LVL15:
 194              		.loc 2 42 0
 195 0044 4FF4FA70 		mov	r0, #500
 196 0048 FFF7FEFF 		bl	leds_stop
 197              	.LVL16:
 198              		.loc 2 45 0
 199 004c 4FF4B770 		mov	r0, #366
 200 0050 FFF7FEFF 		bl	turn_left
 201              	.LVL17:
 202              		.loc 2 46 0
 203 0054 3220     		movs	r0, #50
 204 0056 FFF7FEFF 		bl	chThdSleep
 205              	.LVL18:
 206              		.loc 2 47 0
 207 005a FFF7FEFF 		bl	VL53L0X_get_dist_mm
 208              	.LVL19:
 209 005e 0446     		mov	r4, r0
 210              	.LVL20:
 211              		.loc 2 49 0
 212 0060 4FF4B770 		mov	r0, #366
 213              	.LVL21:
 214 0064 FFF7FEFF 		bl	u_turn
 215              	.LVL22:
 216              		.loc 2 50 0
 217 0068 3220     		movs	r0, #50
 218 006a FFF7FEFF 		bl	chThdSleep
 219              	.LVL23:
 220              		.loc 2 51 0
 221 006e FFF7FEFF 		bl	VL53L0X_get_dist_mm
 222              	.LVL24:
 223              		.loc 2 53 0
 224 0072 632C     		cmp	r4, #99
 225 0074 0ADC     		bgt	.L12
 226              		.loc 2 53 0 is_stmt 0 discriminator 1
 227 0076 6328     		cmp	r0, #99
 228 0078 12DD     		ble	.L19
ARM GAS  C:\Users\Valentin\AppData\Local\Temp\cczYdxCS.s 			page 5


 229              	.L13:
 230              		.loc 2 62 0 is_stmt 1
 231 007a 3220     		movs	r0, #50
 232              	.LVL25:
 233 007c FFF7FEFF 		bl	chThdSleep
 234              	.LVL26:
 235 0080 CEE7     		b	.L10
 236              	.LVL27:
 237              	.L17:
 238              	.LBE12:
 239              		.loc 2 35 0
 240 0082 40F24C40 		movw	r0, #1100
 241 0086 FFF7FEFF 		bl	go_straight
 242              	.LVL28:
 243 008a C9E7     		b	.L10
 244              	.LVL29:
 245              	.L12:
 246              	.LBB13:
 247              		.loc 2 57 0
 248 008c 8442     		cmp	r4, r0
 249 008e F4DD     		ble	.L13
 250              		.loc 2 58 0
 251 0090 4FF4B770 		mov	r0, #366
 252              	.LVL30:
 253 0094 FFF7FEFF 		bl	u_turn
 254              	.LVL31:
 255              		.loc 2 59 0
 256 0098 3220     		movs	r0, #50
 257 009a FFF7FEFF 		bl	chThdSleep
 258              	.LVL32:
 259 009e BFE7     		b	.L10
 260              	.LVL33:
 261              	.L19:
 262              		.loc 2 54 0
 263 00a0 4FF4B770 		mov	r0, #366
 264              	.LVL34:
 265 00a4 FFF7FEFF 		bl	turn_right
 266              	.LVL35:
 267              		.loc 2 55 0
 268 00a8 3220     		movs	r0, #50
 269 00aa FFF7FEFF 		bl	chThdSleep
 270              	.LVL36:
 271 00ae B7E7     		b	.L10
 272              	.L21:
 273              		.align	2
 274              	.L20:
 275 00b0 00000000 		.word	ch
 276 00b4 00000000 		.word	__stack_chk_guard
 277 00b8 00000000 		.word	.LANCHOR0
 278 00bc 00000000 		.word	.LC0
 279 00c0 00000000 		.word	SD3
 280              	.LBE13:
 281              	.LBE15:
 282              		.cfi_endproc
 283              	.LFE260:
 284              		.size	ThdExplore, .-ThdExplore
 285              		.section	.text.explorationLabyrinthe,"ax",%progbits
ARM GAS  C:\Users\Valentin\AppData\Local\Temp\cczYdxCS.s 			page 6


 286              		.align	1
 287              		.p2align 4,,15
 288              		.global	explorationLabyrinthe
 289              		.syntax unified
 290              		.thumb
 291              		.thumb_func
 292              		.fpu fpv4-sp-d16
 293              		.type	explorationLabyrinthe, %function
 294              	explorationLabyrinthe:
 295              	.LFB261:
 296              		.loc 2 72 0
 297              		.cfi_startproc
 298              		@ args = 0, pretend = 0, frame = 8
 299              		@ frame_needed = 0, uses_anonymous_args = 0
 300 0000 10B5     		push	{r4, lr}
 301              		.cfi_def_cfa_offset 8
 302              		.cfi_offset 4, -8
 303              		.cfi_offset 14, -4
 304 0002 0A4C     		ldr	r4, .L26
 305              		.loc 2 73 0
 306 0004 0A4B     		ldr	r3, .L26+4
 307              		.loc 2 72 0
 308 0006 2268     		ldr	r2, [r4]
 309              		.loc 2 73 0
 310 0008 0A48     		ldr	r0, .L26+8
 311              		.loc 2 72 0
 312 000a 84B0     		sub	sp, sp, #16
 313              		.cfi_def_cfa_offset 24
 314              		.loc 2 73 0
 315 000c 4FF41E71 		mov	r1, #632
 316              		.loc 2 72 0
 317 0010 0392     		str	r2, [sp, #12]
 318              		.loc 2 73 0
 319 0012 0022     		movs	r2, #0
 320 0014 0092     		str	r2, [sp]
 321 0016 4122     		movs	r2, #65
 322 0018 FFF7FEFF 		bl	chThdCreateStatic
 323              	.LVL37:
 324              		.loc 2 74 0
 325 001c 039A     		ldr	r2, [sp, #12]
 326 001e 2368     		ldr	r3, [r4]
 327 0020 9A42     		cmp	r2, r3
 328 0022 01D1     		bne	.L25
 329 0024 04B0     		add	sp, sp, #16
 330              		.cfi_remember_state
 331              		.cfi_def_cfa_offset 8
 332              		@ sp needed
 333 0026 10BD     		pop	{r4, pc}
 334              	.L25:
 335              		.cfi_restore_state
 336 0028 FFF7FEFF 		bl	__stack_chk_fail
 337              	.LVL38:
 338              	.L27:
 339              		.align	2
 340              	.L26:
 341 002c 00000000 		.word	__stack_chk_guard
 342 0030 00000000 		.word	ThdExplore
ARM GAS  C:\Users\Valentin\AppData\Local\Temp\cczYdxCS.s 			page 7


 343 0034 00000000 		.word	.LANCHOR1
 344              		.cfi_endproc
 345              	.LFE261:
 346              		.size	explorationLabyrinthe, .-explorationLabyrinthe
 347              		.section	.bss.waThdExplore,"aw",%nobits
 348              		.align	3
 349              		.set	.LANCHOR1,. + 0
 350              		.type	waThdExplore, %object
 351              		.size	waThdExplore, 632
 352              	waThdExplore:
 353 0000 00000000 		.space	632
 353      00000000 
 353      00000000 
 353      00000000 
 353      00000000 
 354              		.section	.rodata.__FUNCTION__.13057,"a",%progbits
 355              		.align	2
 356              		.set	.LANCHOR0,. + 0
 357              		.type	__FUNCTION__.13057, %object
 358              		.size	__FUNCTION__.13057, 11
 359              	__FUNCTION__.13057:
 360 0000 54686445 		.ascii	"ThdExplore\000"
 360      78706C6F 
 360      726500
 361              		.section	.rodata.chprintf.constprop.0.str1.4,"aMS",%progbits,1
 362              		.align	2
 363              	.LC0:
 364 0000 20446973 		.ascii	" Distance= %d \015\012\000"
 364      74616E63 
 364      653D2025 
 364      64200D0A 
 364      00
 365              		.text
 366              	.Letext0:
 367              		.file 4 "c:\\users\\valentin\\desktop\\eclipse_e-puck2\\tools\\gcc-arm-none-eabi-7-2017-q4-major-w
 368              		.file 5 "c:\\users\\valentin\\desktop\\eclipse_e-puck2\\tools\\gcc-arm-none-eabi-7-2017-q4-major-w
 369              		.file 6 "c:\\users\\valentin\\desktop\\eclipse_e-puck2\\tools\\gcc-arm-none-eabi-7-2017-q4-major-w
 370              		.file 7 "c:\\users\\valentin\\desktop\\eclipse_e-puck2\\tools\\gcc-arm-none-eabi-7-2017-q4-major-w
 371              		.file 8 "c:\\users\\valentin\\desktop\\eclipse_e-puck2\\tools\\gcc-arm-none-eabi-7-2017-q4-major-w
 372              		.file 9 "c:\\users\\valentin\\desktop\\eclipse_e-puck2\\tools\\gcc-arm-none-eabi-7-2017-q4-major-w
 373              		.file 10 "c:\\users\\valentin\\desktop\\eclipse_e-puck2\\tools\\gcc-arm-none-eabi-7-2017-q4-major-
 374              		.file 11 "<built-in>"
 375              		.file 12 "c:\\users\\valentin\\desktop\\eclipse_e-puck2\\tools\\gcc-arm-none-eabi-7-2017-q4-major-
 376              		.file 13 "c:\\users\\valentin\\desktop\\eclipse_e-puck2\\tools\\gcc-arm-none-eabi-7-2017-q4-major-
 377              		.file 14 "c:\\users\\valentin\\desktop\\eclipse_e-puck2\\tools\\gcc-arm-none-eabi-7-2017-q4-major-
 378              		.file 15 "../e-puck2_main-processor/ChibiOS//os/rt/ports/ARMCMx/compilers/GCC/chtypes.h"
 379              		.file 16 "../e-puck2_main-processor/ChibiOS//os/rt/include/chsystypes.h"
 380              		.file 17 "../e-puck2_main-processor/ChibiOS//os/rt/include/chschd.h"
 381              		.file 18 "../e-puck2_main-processor/ChibiOS//os/ext/CMSIS/include/core_cm4.h"
 382              		.file 19 "../e-puck2_main-processor/ChibiOS//os/ext/CMSIS/ST/system_stm32f4xx.h"
 383              		.file 20 "../e-puck2_main-processor/ChibiOS//os/ext/CMSIS/ST/stm32f407xx.h"
 384              		.file 21 "../e-puck2_main-processor/ChibiOS//os/rt/ports/ARMCMx/chcore.h"
 385              		.file 22 "../e-puck2_main-processor/ChibiOS//os/rt/ports/ARMCMx/chcore_v7m.h"
 386              		.file 23 "../e-puck2_main-processor/ChibiOS//os/rt/include/chdebug.h"
 387              		.file 24 "../e-puck2_main-processor/ChibiOS//os/rt/include/chtm.h"
 388              		.file 25 "../e-puck2_main-processor/ChibiOS//os/rt/include/chstats.h"
 389              		.file 26 "../e-puck2_main-processor/ChibiOS//os/rt/include/chsem.h"
ARM GAS  C:\Users\Valentin\AppData\Local\Temp\cczYdxCS.s 			page 8


 390              		.file 27 "../e-puck2_main-processor/ChibiOS//os/rt/include/chmtx.h"
 391              		.file 28 "../e-puck2_main-processor/ChibiOS//os/rt/include/chevents.h"
 392              		.file 29 "../e-puck2_main-processor/ChibiOS//os/rt/include/chqueues.h"
 393              		.file 30 "../e-puck2_main-processor/ChibiOS//os/rt/include/chstreams.h"
 394              		.file 31 "../e-puck2_main-processor/ChibiOS//os/hal/ports/STM32/STM32F4xx/stm32_dma.h"
 395              		.file 32 "../e-puck2_main-processor/ChibiOS//os/hal/include/hal_ioblock.h"
 396              		.file 33 "../e-puck2_main-processor/ChibiOS//os/hal/ports/STM32/LLD/GPIOv2/pal_lld.h"
 397              		.file 34 "../e-puck2_main-processor/ChibiOS//os/hal/include/adc.h"
 398              		.file 35 "../e-puck2_main-processor/ChibiOS//os/hal/ports/STM32/STM32F4xx/adc_lld.h"
 399              		.file 36 "../e-puck2_main-processor/ChibiOS//os/hal/include/can.h"
 400              		.file 37 "../e-puck2_main-processor/ChibiOS//os/hal/ports/STM32/LLD/can_lld.h"
 401              		.file 38 "../e-puck2_main-processor/ChibiOS//os/hal/include/dac.h"
 402              		.file 39 "../e-puck2_main-processor/ChibiOS//os/hal/ports/STM32/LLD/DACv1/dac_lld.h"
 403              		.file 40 "../e-puck2_main-processor/ChibiOS//os/hal/include/ext.h"
 404              		.file 41 "../e-puck2_main-processor/ChibiOS//os/hal/ports/STM32/LLD/ext_lld.h"
 405              		.file 42 "../e-puck2_main-processor/ChibiOS//os/hal/include/gpt.h"
 406              		.file 43 "../e-puck2_main-processor/ChibiOS//os/hal/ports/STM32/LLD/TIMv1/gpt_lld.h"
 407              		.file 44 "../e-puck2_main-processor/ChibiOS//os/hal/ports/STM32/LLD/TIMv1/stm32_tim.h"
 408              		.file 45 "../e-puck2_main-processor/ChibiOS//os/hal/include/i2c.h"
 409              		.file 46 "../e-puck2_main-processor/ChibiOS//os/hal/ports/STM32/LLD/I2Cv1/i2c_lld.h"
 410              		.file 47 "../e-puck2_main-processor/ChibiOS//os/hal/include/i2s.h"
 411              		.file 48 "../e-puck2_main-processor/ChibiOS//os/hal/ports/STM32/LLD/SPIv1/i2s_lld.h"
 412              		.file 49 "../e-puck2_main-processor/ChibiOS//os/hal/include/pwm.h"
 413              		.file 50 "../e-puck2_main-processor/ChibiOS//os/hal/ports/STM32/LLD/TIMv1/pwm_lld.h"
 414              		.file 51 "../e-puck2_main-processor/ChibiOS//os/hal/include/serial.h"
 415              		.file 52 "../e-puck2_main-processor/ChibiOS//os/hal/ports/STM32/LLD/USARTv1/serial_lld.h"
 416              		.file 53 "../e-puck2_main-processor/ChibiOS//os/hal/include/sdc.h"
 417              		.file 54 "../e-puck2_main-processor/ChibiOS//os/hal/ports/STM32/LLD/sdc_lld.h"
 418              		.file 55 "../e-puck2_main-processor/ChibiOS//os/hal/include/spi.h"
 419              		.file 56 "../e-puck2_main-processor/ChibiOS//os/hal/ports/STM32/LLD/SPIv1/spi_lld.h"
 420              		.file 57 "../e-puck2_main-processor/ChibiOS//os/hal/include/usb.h"
 421              		.file 58 "../e-puck2_main-processor/ChibiOS//os/hal/ports/STM32/LLD/OTGv1/usb_lld.h"
 422              		.file 59 "../e-puck2_main-processor/ChibiOS//os/hal/ports/STM32/LLD/OTGv1/stm32_otg.h"
 423              		.file 60 "c:\\users\\valentin\\desktop\\eclipse_e-puck2\\tools\\gcc-arm-none-eabi-7-2017-q4-major-
 424              		.file 61 "../e-puck2_main-processor/ChibiOS//os/rt/include/chthreads.h"
 425              		.file 62 "./usageMotors.h"
 426              		.file 63 "./actionUser.h"
 427              		.file 64 "../e-puck2_main-processor/src/sensors/VL53L0X/VL53L0X.h"