ARM GAS  C:\Users\Valentin\AppData\Local\Temp\ccnxWxWG.s 			page 1


   1              		.cpu cortex-m4
   2              		.eabi_attribute 27, 1
   3              		.eabi_attribute 28, 1
   4              		.eabi_attribute 20, 1
   5              		.eabi_attribute 21, 1
   6              		.eabi_attribute 23, 3
   7              		.eabi_attribute 24, 1
   8              		.eabi_attribute 25, 1
   9              		.eabi_attribute 26, 1
  10              		.eabi_attribute 30, 2
  11              		.eabi_attribute 34, 1
  12              		.eabi_attribute 18, 4
  13              		.file	"trouver_couleur.c"
  14              		.text
  15              	.Ltext0:
  16              		.cfi_sections	.debug_frame
  17              		.section	.text.ProcessImage,"ax",%progbits
  18              		.align	1
  19              		.p2align 4,,15
  20              		.syntax unified
  21              		.thumb
  22              		.thumb_func
  23              		.fpu fpv4-sp-d16
  24              		.type	ProcessImage, %function
  25              	ProcessImage:
  26              	.LFB258:
  27              		.file 1 "trouver_couleur.c"
  28              		.loc 1 125 0
  29              		.cfi_startproc
  30              		@ args = 0, pretend = 0, frame = 8
  31              		@ frame_needed = 0, uses_anonymous_args = 0
  32              	.LVL0:
  33 0000 10B5     		push	{r4, lr}
  34              		.cfi_def_cfa_offset 8
  35              		.cfi_offset 4, -8
  36              		.cfi_offset 14, -4
  37              	.LBB60:
  38              	.LBB61:
  39              		.file 2 "../e-puck2_main-processor/ChibiOS//os/rt/include/chregistry.h"
  40              		.loc 2 135 0
  41 0002 094A     		ldr	r2, .L6
  42              	.LBE61:
  43              	.LBE60:
  44              		.loc 1 125 0
  45 0004 094B     		ldr	r3, .L6+4
  46              	.LBB64:
  47              	.LBB62:
  48              		.loc 2 135 0
  49 0006 9269     		ldr	r2, [r2, #24]
  50 0008 0949     		ldr	r1, .L6+8
  51              	.LBE62:
  52              	.LBE64:
  53              		.loc 1 125 0
  54 000a 1B68     		ldr	r3, [r3]
  55              	.LBB65:
  56              	.LBB66:
  57              		.file 3 "../e-puck2_main-processor/ChibiOS//os/rt/include/chbsem.h"
ARM GAS  C:\Users\Valentin\AppData\Local\Temp\ccnxWxWG.s 			page 2


  58              		.loc 3 143 0
  59 000c 094C     		ldr	r4, .L6+12
  60              	.LBE66:
  61              	.LBE65:
  62              	.LBB68:
  63              	.LBB63:
  64              		.loc 2 135 0
  65 000e 9161     		str	r1, [r2, #24]
  66              	.LBE63:
  67              	.LBE68:
  68              		.loc 1 125 0
  69 0010 82B0     		sub	sp, sp, #8
  70              		.cfi_def_cfa_offset 16
  71              		.loc 1 125 0
  72 0012 0193     		str	r3, [sp, #4]
  73              	.LVL1:
  74              	.L2:
  75              	.LBB69:
  76              	.LBB67:
  77              		.loc 3 143 0
  78 0014 2046     		mov	r0, r4
  79 0016 FFF7FEFF 		bl	chSemWait
  80              	.LVL2:
  81              	.LBE67:
  82              	.LBE69:
  83              		.loc 1 145 0
  84 001a FFF7FEFF 		bl	cam_get_last_image_ptr
  85              	.LVL3:
  86              		.loc 1 186 0
  87 001e 0121     		movs	r1, #1
  88 0020 0320     		movs	r0, #3
  89 0022 FFF7FEFF 		bl	set_led
  90              	.LVL4:
  91 0026 F5E7     		b	.L2
  92              	.L7:
  93              		.align	2
  94              	.L6:
  95 0028 00000000 		.word	ch
  96 002c 00000000 		.word	__stack_chk_guard
  97 0030 00000000 		.word	.LANCHOR0
  98 0034 00000000 		.word	.LANCHOR1
  99              		.cfi_endproc
 100              	.LFE258:
 101              		.size	ProcessImage, .-ProcessImage
 102              		.section	.text.CaptureImage,"ax",%progbits
 103              		.align	1
 104              		.p2align 4,,15
 105              		.syntax unified
 106              		.thumb
 107              		.thumb_func
 108              		.fpu fpv4-sp-d16
 109              		.type	CaptureImage, %function
 110              	CaptureImage:
 111              	.LFB257:
 112              		.loc 1 98 0
 113              		.cfi_startproc
 114              		@ args = 0, pretend = 0, frame = 8
ARM GAS  C:\Users\Valentin\AppData\Local\Temp\ccnxWxWG.s 			page 3


 115              		@ frame_needed = 0, uses_anonymous_args = 0
 116              	.LVL5:
 117 0000 2DE9F041 		push	{r4, r5, r6, r7, r8, lr}
 118              		.cfi_def_cfa_offset 24
 119              		.cfi_offset 4, -24
 120              		.cfi_offset 5, -20
 121              		.cfi_offset 6, -16
 122              		.cfi_offset 7, -12
 123              		.cfi_offset 8, -8
 124              		.cfi_offset 14, -4
 125              	.LBB101:
 126              	.LBB102:
 127              		.loc 2 135 0
 128 0004 314C     		ldr	r4, .L16
 129              	.LBE102:
 130              	.LBE101:
 131              		.loc 1 98 0
 132 0006 324A     		ldr	r2, .L16+4
 133              	.LBB104:
 134              	.LBB103:
 135              		.loc 2 135 0
 136 0008 A369     		ldr	r3, [r4, #24]
 137 000a 3249     		ldr	r1, .L16+8
 138 000c 9961     		str	r1, [r3, #24]
 139              	.LBE103:
 140              	.LBE104:
 141              		.loc 1 98 0
 142 000e 86B0     		sub	sp, sp, #24
 143              		.cfi_def_cfa_offset 48
 144              		.loc 1 104 0
 145 0010 2025     		movs	r5, #32
 146 0012 0223     		movs	r3, #2
 147              		.loc 1 98 0
 148 0014 1668     		ldr	r6, [r2]
 149              		.loc 1 104 0
 150 0016 0093     		str	r3, [sp]
 151 0018 0A22     		movs	r2, #10
 152 001a 4FF42073 		mov	r3, #640
 153 001e 0021     		movs	r1, #0
 154 0020 CDE90155 		strd	r5, r5, [sp, #4]
 155 0024 3020     		movs	r0, #48
 156              	.LVL6:
 157              		.loc 1 98 0
 158 0026 0596     		str	r6, [sp, #20]
 159              		.loc 1 104 0
 160 0028 FFF7FEFF 		bl	po8030_advanced_config
 161              	.LVL7:
 162              		.loc 1 105 0
 163 002c 0020     		movs	r0, #0
 164 002e FFF7FEFF 		bl	po8030_set_awb
 165              	.LVL8:
 166              		.loc 1 106 0
 167 0032 FFF7FEFF 		bl	dcmi_enable_double_buffering
 168              	.LVL9:
 169              		.loc 1 107 0
 170 0036 0020     		movs	r0, #0
 171 0038 FFF7FEFF 		bl	dcmi_set_capture_mode
ARM GAS  C:\Users\Valentin\AppData\Local\Temp\ccnxWxWG.s 			page 4


 172              	.LVL10:
 173              		.loc 1 108 0
 174 003c FFF7FEFF 		bl	dcmi_prepare
 175              	.LVL11:
 176              	.LBB105:
 177              	.LBB106:
 178              	.LBB107:
 179              	.LBB108:
 180              	.LBB109:
 181              	.LBB110:
 182              	.LBB111:
 183              		.file 4 "../e-puck2_main-processor/ChibiOS//os/ext/CMSIS/include/core_cmFunc.h"
 184              		.loc 4 546 0
 185              		.syntax unified
 186              	@ 546 "../e-puck2_main-processor/ChibiOS//os/ext/CMSIS/include/core_cmFunc.h" 1
 187 0040 85F31188 		MSR basepri, r5
 188              	@ 0 "" 2
 189              	.LVL12:
 190              		.thumb
 191              		.syntax unified
 192              	.LBE111:
 193              	.LBE110:
 194              	.LBE109:
 195              		.file 5 "../e-puck2_main-processor/ChibiOS//os/rt/include/chsys.h"
 196              		.loc 5 349 0
 197 0044 FFF7FEFF 		bl	_stats_start_measure_crit_thd
 198              	.LVL13:
 199              		.loc 5 350 0
 200 0048 FFF7FEFF 		bl	_dbg_check_lock
 201              	.LVL14:
 202              	.LBE108:
 203              	.LBE107:
 204              	.LBB112:
 205              	.LBB113:
 206              		.file 6 "../e-puck2_main-processor/ChibiOS//os/rt/include/chvt.h"
 207              		.loc 6 231 0
 208 004c A36A     		ldr	r3, [r4, #40]
 209              	.LBE113:
 210              	.LBE112:
 211              	.LBB114:
 212              	.LBB115:
 213              		.loc 5 360 0
 214 004e FFF7FEFF 		bl	_dbg_check_unlock
 215              	.LVL15:
 216              		.loc 5 361 0
 217 0052 FFF7FEFF 		bl	_stats_stop_measure_crit_thd
 218              	.LVL16:
 219              		.loc 5 367 0
 220 0056 2368     		ldr	r3, [r4]
 221 0058 A342     		cmp	r3, r4
 222 005a 04D0     		beq	.L9
 223 005c A269     		ldr	r2, [r4, #24]
 224 005e 9B68     		ldr	r3, [r3, #8]
 225 0060 9268     		ldr	r2, [r2, #8]
 226 0062 9A42     		cmp	r2, r3
 227 0064 2ED3     		bcc	.L15
 228              	.L9:
ARM GAS  C:\Users\Valentin\AppData\Local\Temp\ccnxWxWG.s 			page 5


 229              	.LVL17:
 230              	.LBB116:
 231              	.LBB117:
 232              	.LBB118:
 233              		.loc 4 546 0
 234 0066 0023     		movs	r3, #0
 235              		.syntax unified
 236              	@ 546 "../e-puck2_main-processor/ChibiOS//os/ext/CMSIS/include/core_cmFunc.h" 1
 237 0068 83F31188 		MSR basepri, r3
 238              	@ 0 "" 2
 239              	.LVL18:
 240              		.thumb
 241              		.syntax unified
 242 006c 1A4D     		ldr	r5, .L16+12
 243              	.LBE118:
 244              	.LBE117:
 245              	.LBE116:
 246              	.LBE115:
 247              	.LBE114:
 248              	.LBE106:
 249              	.LBE105:
 250              	.LBB122:
 251              	.LBB123:
 252              	.LBB124:
 253              	.LBB125:
 254              	.LBB126:
 255              		.loc 5 367 0
 256 006e 1B4F     		ldr	r7, .L16+16
 257              	.LBE126:
 258              	.LBE125:
 259              	.LBB131:
 260              	.LBB132:
 261              		.loc 3 271 0
 262 0070 A846     		mov	r8, r5
 263              	.LBE132:
 264              	.LBE131:
 265              	.LBB134:
 266              	.LBB135:
 267              	.LBB136:
 268              	.LBB137:
 269              	.LBB138:
 270              		.loc 4 546 0
 271 0072 2026     		movs	r6, #32
 272 0074 13E0     		b	.L12
 273              	.LVL19:
 274              	.L10:
 275              	.LBE138:
 276              	.LBE137:
 277              	.LBE136:
 278              	.LBE135:
 279              	.LBE134:
 280              		.loc 3 286 0
 281 0076 FFF7FEFF 		bl	chSchRescheduleS
 282              	.LVL20:
 283              	.LBB143:
 284              	.LBB130:
 285              		.loc 5 360 0
ARM GAS  C:\Users\Valentin\AppData\Local\Temp\ccnxWxWG.s 			page 6


 286 007a FFF7FEFF 		bl	_dbg_check_unlock
 287              	.LVL21:
 288              		.loc 5 361 0
 289 007e FFF7FEFF 		bl	_stats_stop_measure_crit_thd
 290              	.LVL22:
 291              		.loc 5 367 0
 292 0082 2368     		ldr	r3, [r4]
 293 0084 A342     		cmp	r3, r4
 294 0086 07D0     		beq	.L11
 295 0088 A269     		ldr	r2, [r4, #24]
 296 008a 9B68     		ldr	r3, [r3, #8]
 297 008c 9268     		ldr	r2, [r2, #8]
 298 008e 9A42     		cmp	r2, r3
 299 0090 02D2     		bcs	.L11
 300 0092 3846     		mov	r0, r7
 301 0094 FFF7FEFF 		bl	chSysHalt
 302              	.LVL23:
 303              	.L11:
 304              	.LBB127:
 305              	.LBB128:
 306              	.LBB129:
 307              		.loc 4 546 0
 308 0098 0023     		movs	r3, #0
 309              		.syntax unified
 310              	@ 546 "../e-puck2_main-processor/ChibiOS//os/ext/CMSIS/include/core_cmFunc.h" 1
 311 009a 83F31188 		MSR basepri, r3
 312              	@ 0 "" 2
 313              	.LVL24:
 314              		.thumb
 315              		.syntax unified
 316              	.L12:
 317              	.LBE129:
 318              	.LBE128:
 319              	.LBE127:
 320              	.LBE130:
 321              	.LBE143:
 322              	.LBE124:
 323              	.LBE123:
 324              		.loc 1 115 0 discriminator 1
 325 009e FFF7FEFF 		bl	dcmi_capture_start
 326              	.LVL25:
 327              		.loc 1 117 0 discriminator 1
 328 00a2 FFF7FEFF 		bl	wait_image_ready
 329              	.LVL26:
 330              	.LBB147:
 331              	.LBB146:
 332              	.LBB144:
 333              	.LBB142:
 334              	.LBB141:
 335              	.LBB140:
 336              	.LBB139:
 337              		.loc 4 546 0 discriminator 1
 338              		.syntax unified
 339              	@ 546 "../e-puck2_main-processor/ChibiOS//os/ext/CMSIS/include/core_cmFunc.h" 1
 340 00a6 86F31188 		MSR basepri, r6
 341              	@ 0 "" 2
 342              	.LVL27:
ARM GAS  C:\Users\Valentin\AppData\Local\Temp\ccnxWxWG.s 			page 7


 343              		.thumb
 344              		.syntax unified
 345              	.LBE139:
 346              	.LBE140:
 347              	.LBE141:
 348              		.loc 5 349 0 discriminator 1
 349 00aa FFF7FEFF 		bl	_stats_start_measure_crit_thd
 350              	.LVL28:
 351              		.loc 5 350 0 discriminator 1
 352 00ae FFF7FEFF 		bl	_dbg_check_lock
 353              	.LVL29:
 354              	.LBE142:
 355              	.LBE144:
 356              	.LBB145:
 357              	.LBB133:
 358              		.loc 3 268 0 discriminator 1
 359 00b2 FFF7FEFF 		bl	chDbgCheckClassI
 360              	.LVL30:
 361              		.loc 3 270 0 discriminator 1
 362 00b6 AB68     		ldr	r3, [r5, #8]
 363 00b8 002B     		cmp	r3, #0
 364 00ba DCDC     		bgt	.L10
 365              		.loc 3 271 0
 366 00bc 4046     		mov	r0, r8
 367 00be FFF7FEFF 		bl	chSemSignalI
 368              	.LVL31:
 369 00c2 D8E7     		b	.L10
 370              	.LVL32:
 371              	.L15:
 372              	.LBE133:
 373              	.LBE145:
 374              	.LBE146:
 375              	.LBE147:
 376              	.LBE122:
 377              	.LBB148:
 378              	.LBB121:
 379              	.LBB120:
 380              	.LBB119:
 381              		.loc 5 367 0
 382 00c4 0548     		ldr	r0, .L16+16
 383 00c6 FFF7FEFF 		bl	chSysHalt
 384              	.LVL33:
 385 00ca CCE7     		b	.L9
 386              	.L17:
 387              		.align	2
 388              	.L16:
 389 00cc 00000000 		.word	ch
 390 00d0 00000000 		.word	__stack_chk_guard
 391 00d4 00000000 		.word	.LANCHOR2
 392 00d8 00000000 		.word	.LANCHOR1
 393 00dc 00000000 		.word	.LANCHOR3
 394              	.LBE119:
 395              	.LBE120:
 396              	.LBE121:
 397              	.LBE148:
 398              		.cfi_endproc
 399              	.LFE257:
ARM GAS  C:\Users\Valentin\AppData\Local\Temp\ccnxWxWG.s 			page 8


 400              		.size	CaptureImage, .-CaptureImage
 401              		.section	.text.get_line_position,"ax",%progbits
 402              		.align	1
 403              		.p2align 4,,15
 404              		.global	get_line_position
 405              		.syntax unified
 406              		.thumb
 407              		.thumb_func
 408              		.fpu fpv4-sp-d16
 409              		.type	get_line_position, %function
 410              	get_line_position:
 411              	.LFB259:
 412              		.loc 1 198 0
 413              		.cfi_startproc
 414              		@ args = 0, pretend = 0, frame = 8
 415              		@ frame_needed = 0, uses_anonymous_args = 0
 416 0000 00B5     		push	{lr}
 417              		.cfi_def_cfa_offset 4
 418              		.cfi_offset 14, -4
 419 0002 074B     		ldr	r3, .L22
 420 0004 83B0     		sub	sp, sp, #12
 421              		.cfi_def_cfa_offset 16
 422              		.loc 1 198 0
 423 0006 1A68     		ldr	r2, [r3]
 424 0008 0192     		str	r2, [sp, #4]
 425              		.loc 1 200 0
 426 000a 019A     		ldr	r2, [sp, #4]
 427 000c 1B68     		ldr	r3, [r3]
 428 000e 9A42     		cmp	r2, r3
 429 0010 04D1     		bne	.L21
 430 0012 4FF4A070 		mov	r0, #320
 431 0016 03B0     		add	sp, sp, #12
 432              		.cfi_remember_state
 433              		.cfi_def_cfa_offset 4
 434              		@ sp needed
 435 0018 5DF804FB 		ldr	pc, [sp], #4
 436              	.L21:
 437              		.cfi_restore_state
 438 001c FFF7FEFF 		bl	__stack_chk_fail
 439              	.LVL34:
 440              	.L23:
 441              		.align	2
 442              	.L22:
 443 0020 00000000 		.word	__stack_chk_guard
 444              		.cfi_endproc
 445              	.LFE259:
 446              		.size	get_line_position, .-get_line_position
 447              		.section	.text.process_image_start,"ax",%progbits
 448              		.align	1
 449              		.p2align 4,,15
 450              		.global	process_image_start
 451              		.syntax unified
 452              		.thumb
 453              		.thumb_func
 454              		.fpu fpv4-sp-d16
 455              		.type	process_image_start, %function
 456              	process_image_start:
ARM GAS  C:\Users\Valentin\AppData\Local\Temp\ccnxWxWG.s 			page 9


 457              	.LFB260:
 458              		.loc 1 203 0
 459              		.cfi_startproc
 460              		@ args = 0, pretend = 0, frame = 8
 461              		@ frame_needed = 0, uses_anonymous_args = 0
 462 0000 30B5     		push	{r4, r5, lr}
 463              		.cfi_def_cfa_offset 12
 464              		.cfi_offset 4, -12
 465              		.cfi_offset 5, -8
 466              		.cfi_offset 14, -4
 467 0002 0E4C     		ldr	r4, .L28
 468              		.loc 1 204 0
 469 0004 0E4B     		ldr	r3, .L28+4
 470              		.loc 1 203 0
 471 0006 2268     		ldr	r2, [r4]
 472              		.loc 1 204 0
 473 0008 0E48     		ldr	r0, .L28+8
 474              		.loc 1 203 0
 475 000a 85B0     		sub	sp, sp, #20
 476              		.cfi_def_cfa_offset 32
 477              		.loc 1 204 0
 478 000c 0025     		movs	r5, #0
 479              		.loc 1 203 0
 480 000e 0392     		str	r2, [sp, #12]
 481              		.loc 1 204 0
 482 0010 4FF4AF61 		mov	r1, #1400
 483 0014 4022     		movs	r2, #64
 484 0016 0095     		str	r5, [sp]
 485 0018 FFF7FEFF 		bl	chThdCreateStatic
 486              	.LVL35:
 487              		.loc 1 205 0
 488 001c 0A4B     		ldr	r3, .L28+12
 489 001e 0095     		str	r5, [sp]
 490 0020 4022     		movs	r2, #64
 491 0022 0A48     		ldr	r0, .L28+16
 492 0024 4FF41E71 		mov	r1, #632
 493 0028 FFF7FEFF 		bl	chThdCreateStatic
 494              	.LVL36:
 495              		.loc 1 206 0
 496 002c 039A     		ldr	r2, [sp, #12]
 497 002e 2368     		ldr	r3, [r4]
 498 0030 9A42     		cmp	r2, r3
 499 0032 01D1     		bne	.L27
 500 0034 05B0     		add	sp, sp, #20
 501              		.cfi_remember_state
 502              		.cfi_def_cfa_offset 12
 503              		@ sp needed
 504 0036 30BD     		pop	{r4, r5, pc}
 505              	.L27:
 506              		.cfi_restore_state
 507 0038 FFF7FEFF 		bl	__stack_chk_fail
 508              	.LVL37:
 509              	.L29:
 510              		.align	2
 511              	.L28:
 512 003c 00000000 		.word	__stack_chk_guard
 513 0040 00000000 		.word	ProcessImage
ARM GAS  C:\Users\Valentin\AppData\Local\Temp\ccnxWxWG.s 			page 10


 514 0044 00000000 		.word	.LANCHOR4
 515 0048 00000000 		.word	CaptureImage
 516 004c 00000000 		.word	.LANCHOR5
 517              		.cfi_endproc
 518              	.LFE260:
 519              		.size	process_image_start, .-process_image_start
 520              		.section	.bss.waCaptureImage,"aw",%nobits
 521              		.align	3
 522              		.set	.LANCHOR5,. + 0
 523              		.type	waCaptureImage, %object
 524              		.size	waCaptureImage, 632
 525              	waCaptureImage:
 526 0000 00000000 		.space	632
 526      00000000 
 526      00000000 
 526      00000000 
 526      00000000 
 527              		.section	.bss.waProcessImage,"aw",%nobits
 528              		.align	3
 529              		.set	.LANCHOR4,. + 0
 530              		.type	waProcessImage, %object
 531              		.size	waProcessImage, 1400
 532              	waProcessImage:
 533 0000 00000000 		.space	1400
 533      00000000 
 533      00000000 
 533      00000000 
 533      00000000 
 534              		.section	.data.image_ready_sem,"aw",%progbits
 535              		.align	2
 536              		.set	.LANCHOR1,. + 0
 537              		.type	image_ready_sem, %object
 538              		.size	image_ready_sem, 12
 539              	image_ready_sem:
 540 0000 00000000 		.word	image_ready_sem
 541 0004 00000000 		.word	image_ready_sem
 542 0008 00000000 		.word	0
 543              		.section	.rodata.__FUNCTION__.11311,"a",%progbits
 544              		.align	2
 545              		.set	.LANCHOR2,. + 0
 546              		.type	__FUNCTION__.11311, %object
 547              		.size	__FUNCTION__.11311, 13
 548              	__FUNCTION__.11311:
 549 0000 43617074 		.ascii	"CaptureImage\000"
 549      75726549 
 549      6D616765 
 549      00
 550              		.section	.rodata.__FUNCTION__.11328,"a",%progbits
 551              		.align	2
 552              		.set	.LANCHOR0,. + 0
 553              		.type	__FUNCTION__.11328, %object
 554              		.size	__FUNCTION__.11328, 13
 555              	__FUNCTION__.11328:
 556 0000 50726F63 		.ascii	"ProcessImage\000"
 556      65737349 
 556      6D616765 
 556      00
ARM GAS  C:\Users\Valentin\AppData\Local\Temp\ccnxWxWG.s 			page 11


 557              		.section	.rodata.__func__.7155,"a",%progbits
 558              		.align	2
 559              		.set	.LANCHOR3,. + 0
 560              		.type	__func__.7155, %object
 561              		.size	__func__.7155, 12
 562              	__func__.7155:
 563 0000 63685379 		.ascii	"chSysUnlock\000"
 563      73556E6C 
 563      6F636B00 
 564              		.text
 565              	.Letext0:
 566              		.file 7 "c:\\users\\valentin\\desktop\\eclipse_e-puck2\\tools\\gcc-arm-none-eabi-7-2017-q4-major-w
 567              		.file 8 "c:\\users\\valentin\\desktop\\eclipse_e-puck2\\tools\\gcc-arm-none-eabi-7-2017-q4-major-w
 568              		.file 9 "c:\\users\\valentin\\desktop\\eclipse_e-puck2\\tools\\gcc-arm-none-eabi-7-2017-q4-major-w
 569              		.file 10 "../e-puck2_main-processor/ChibiOS//os/rt/ports/ARMCMx/compilers/GCC/chtypes.h"
 570              		.file 11 "../e-puck2_main-processor/ChibiOS//os/rt/include/chsystypes.h"
 571              		.file 12 "../e-puck2_main-processor/ChibiOS//os/rt/include/chschd.h"
 572              		.file 13 "../e-puck2_main-processor/ChibiOS//os/ext/CMSIS/include/core_cm4.h"
 573              		.file 14 "../e-puck2_main-processor/ChibiOS//os/ext/CMSIS/ST/system_stm32f4xx.h"
 574              		.file 15 "../e-puck2_main-processor/ChibiOS//os/ext/CMSIS/ST/stm32f407xx.h"
 575              		.file 16 "../e-puck2_main-processor/ChibiOS//os/rt/ports/ARMCMx/chcore.h"
 576              		.file 17 "../e-puck2_main-processor/ChibiOS//os/rt/ports/ARMCMx/chcore_v7m.h"
 577              		.file 18 "../e-puck2_main-processor/ChibiOS//os/rt/include/chdebug.h"
 578              		.file 19 "../e-puck2_main-processor/ChibiOS//os/rt/include/chtm.h"
 579              		.file 20 "../e-puck2_main-processor/ChibiOS//os/rt/include/chstats.h"
 580              		.file 21 "../e-puck2_main-processor/ChibiOS//os/rt/include/chsem.h"
 581              		.file 22 "../e-puck2_main-processor/ChibiOS//os/rt/include/chmtx.h"
 582              		.file 23 "../e-puck2_main-processor/ChibiOS//os/rt/include/chevents.h"
 583              		.file 24 "../e-puck2_main-processor/ChibiOS//os/rt/include/chqueues.h"
 584              		.file 25 "../e-puck2_main-processor/ChibiOS//os/hal/ports/STM32/STM32F4xx/stm32_dma.h"
 585              		.file 26 "../e-puck2_main-processor/ChibiOS//os/hal/include/hal_ioblock.h"
 586              		.file 27 "../e-puck2_main-processor/ChibiOS//os/hal/ports/STM32/LLD/GPIOv2/pal_lld.h"
 587              		.file 28 "../e-puck2_main-processor/ChibiOS//os/hal/include/adc.h"
 588              		.file 29 "../e-puck2_main-processor/ChibiOS//os/hal/ports/STM32/STM32F4xx/adc_lld.h"
 589              		.file 30 "../e-puck2_main-processor/ChibiOS//os/hal/include/can.h"
 590              		.file 31 "../e-puck2_main-processor/ChibiOS//os/hal/ports/STM32/LLD/can_lld.h"
 591              		.file 32 "../e-puck2_main-processor/ChibiOS//os/hal/include/dac.h"
 592              		.file 33 "../e-puck2_main-processor/ChibiOS//os/hal/ports/STM32/LLD/DACv1/dac_lld.h"
 593              		.file 34 "../e-puck2_main-processor/ChibiOS//os/hal/include/ext.h"
 594              		.file 35 "../e-puck2_main-processor/ChibiOS//os/hal/ports/STM32/LLD/ext_lld.h"
 595              		.file 36 "../e-puck2_main-processor/ChibiOS//os/hal/include/gpt.h"
 596              		.file 37 "../e-puck2_main-processor/ChibiOS//os/hal/ports/STM32/LLD/TIMv1/gpt_lld.h"
 597              		.file 38 "../e-puck2_main-processor/ChibiOS//os/hal/ports/STM32/LLD/TIMv1/stm32_tim.h"
 598              		.file 39 "../e-puck2_main-processor/ChibiOS//os/hal/include/i2c.h"
 599              		.file 40 "../e-puck2_main-processor/ChibiOS//os/hal/ports/STM32/LLD/I2Cv1/i2c_lld.h"
 600              		.file 41 "../e-puck2_main-processor/ChibiOS//os/hal/include/i2s.h"
 601              		.file 42 "../e-puck2_main-processor/ChibiOS//os/hal/ports/STM32/LLD/SPIv1/i2s_lld.h"
 602              		.file 43 "../e-puck2_main-processor/ChibiOS//os/hal/include/pwm.h"
 603              		.file 44 "../e-puck2_main-processor/ChibiOS//os/hal/ports/STM32/LLD/TIMv1/pwm_lld.h"
 604              		.file 45 "../e-puck2_main-processor/ChibiOS//os/hal/include/serial.h"
 605              		.file 46 "../e-puck2_main-processor/ChibiOS//os/hal/ports/STM32/LLD/USARTv1/serial_lld.h"
 606              		.file 47 "../e-puck2_main-processor/ChibiOS//os/hal/include/sdc.h"
 607              		.file 48 "../e-puck2_main-processor/ChibiOS//os/hal/ports/STM32/LLD/sdc_lld.h"
 608              		.file 49 "../e-puck2_main-processor/ChibiOS//os/hal/include/spi.h"
 609              		.file 50 "../e-puck2_main-processor/ChibiOS//os/hal/ports/STM32/LLD/SPIv1/spi_lld.h"
 610              		.file 51 "../e-puck2_main-processor/ChibiOS//os/hal/include/usb.h"
 611              		.file 52 "../e-puck2_main-processor/ChibiOS//os/hal/ports/STM32/LLD/OTGv1/usb_lld.h"
ARM GAS  C:\Users\Valentin\AppData\Local\Temp\ccnxWxWG.s 			page 12


 612              		.file 53 "../e-puck2_main-processor/ChibiOS//os/hal/ports/STM32/LLD/OTGv1/stm32_otg.h"
 613              		.file 54 "../e-puck2_main-processor/ChibiOS//os/hal/include/serial_usb.h"
 614              		.file 55 "../e-puck2_main-processor/src/usbcfg.h"
 615              		.file 56 "c:\\users\\valentin\\desktop\\eclipse_e-puck2\\tools\\gcc-arm-none-eabi-7-2017-q4-major-
 616              		.file 57 "c:\\users\\valentin\\desktop\\eclipse_e-puck2\\tools\\gcc-arm-none-eabi-7-2017-q4-major-
 617              		.file 58 "c:\\users\\valentin\\desktop\\eclipse_e-puck2\\tools\\gcc-arm-none-eabi-7-2017-q4-major-
 618              		.file 59 "../e-puck2_main-processor/src/msgbus/messagebus.h"
 619              		.file 60 "c:\\users\\valentin\\desktop\\eclipse_e-puck2\\tools\\gcc-arm-none-eabi-7-2017-q4-major-
 620              		.file 61 "c:\\users\\valentin\\desktop\\eclipse_e-puck2\\tools\\gcc-arm-none-eabi-7-2017-q4-major-
 621              		.file 62 "../e-puck2_main-processor/src/parameter/parameter.h"
 622              		.file 63 "./main.h"
 623              		.file 64 "../e-puck2_main-processor/src/camera/camera.h"
 624              		.file 65 "../e-puck2_main-processor/src/camera/po8030.h"
 625              		.file 66 "../e-puck2_main-processor/ChibiOS//os/rt/include/chthreads.h"
 626              		.file 67 "../e-puck2_main-processor/src/leds.h"