ARM GAS  C:\Users\Valentin\AppData\Local\Temp\ccc5PWz7.s 			page 1


   1              		.cpu cortex-m4
   2              		.eabi_attribute 27, 1
   3              		.eabi_attribute 28, 1
   4              		.eabi_attribute 20, 1
   5              		.eabi_attribute 21, 1
   6              		.eabi_attribute 23, 3
   7              		.eabi_attribute 24, 1
   8              		.eabi_attribute 25, 1
   9              		.eabi_attribute 26, 1
  10              		.eabi_attribute 30, 2
  11              		.eabi_attribute 34, 1
  12              		.eabi_attribute 18, 4
  13              		.file	"usageMotors.c"
  14              		.text
  15              	.Ltext0:
  16              		.cfi_sections	.debug_frame
  17              		.section	.text.go_straight,"ax",%progbits
  18              		.align	1
  19              		.p2align 4,,15
  20              		.global	go_straight
  21              		.syntax unified
  22              		.thumb
  23              		.thumb_func
  24              		.fpu fpv4-sp-d16
  25              		.type	go_straight, %function
  26              	go_straight:
  27              	.LFB259:
  28              		.file 1 "usageMotors.c"
  29              		.loc 1 22 0
  30              		.cfi_startproc
  31              		@ args = 0, pretend = 0, frame = 8
  32              		@ frame_needed = 0, uses_anonymous_args = 0
  33              	.LVL0:
  34 0000 30B5     		push	{r4, r5, lr}
  35              		.cfi_def_cfa_offset 12
  36              		.cfi_offset 4, -12
  37              		.cfi_offset 5, -8
  38              		.cfi_offset 14, -4
  39 0002 094C     		ldr	r4, .L7
  40 0004 83B0     		sub	sp, sp, #12
  41              		.cfi_def_cfa_offset 24
  42              		.loc 1 22 0
  43 0006 2368     		ldr	r3, [r4]
  44 0008 0193     		str	r3, [sp, #4]
  45 000a 0546     		mov	r5, r0
  46              		.loc 1 23 0
  47 000c FFF7FEFF 		bl	right_motor_set_speed
  48              	.LVL1:
  49              		.loc 1 24 0
  50 0010 019A     		ldr	r2, [sp, #4]
  51 0012 2368     		ldr	r3, [r4]
  52 0014 9A42     		cmp	r2, r3
  53 0016 05D1     		bne	.L6
  54 0018 2846     		mov	r0, r5
  55              		.loc 1 25 0
  56 001a 03B0     		add	sp, sp, #12
  57              		.cfi_remember_state
ARM GAS  C:\Users\Valentin\AppData\Local\Temp\ccc5PWz7.s 			page 2


  58              		.cfi_def_cfa_offset 12
  59              		@ sp needed
  60 001c BDE83040 		pop	{r4, r5, lr}
  61              		.cfi_restore 14
  62              		.cfi_restore 5
  63              		.cfi_restore 4
  64              		.cfi_def_cfa_offset 0
  65              	.LVL2:
  66              		.loc 1 24 0
  67 0020 FFF7FEBF 		b	left_motor_set_speed
  68              	.LVL3:
  69              	.L6:
  70              		.cfi_restore_state
  71 0024 FFF7FEFF 		bl	__stack_chk_fail
  72              	.LVL4:
  73              	.L8:
  74              		.align	2
  75              	.L7:
  76 0028 00000000 		.word	__stack_chk_guard
  77              		.cfi_endproc
  78              	.LFE259:
  79              		.size	go_straight, .-go_straight
  80              		.section	.text.move_str_dist,"ax",%progbits
  81              		.align	1
  82              		.p2align 4,,15
  83              		.global	move_str_dist
  84              		.syntax unified
  85              		.thumb
  86              		.thumb_func
  87              		.fpu fpv4-sp-d16
  88              		.type	move_str_dist, %function
  89              	move_str_dist:
  90              	.LFB260:
  91              		.loc 1 27 0
  92              		.cfi_startproc
  93              		@ args = 0, pretend = 0, frame = 8
  94              		@ frame_needed = 0, uses_anonymous_args = 0
  95              	.LVL5:
  96 0000 F0B5     		push	{r4, r5, r6, r7, lr}
  97              		.cfi_def_cfa_offset 20
  98              		.cfi_offset 4, -20
  99              		.cfi_offset 5, -16
 100              		.cfi_offset 6, -12
 101              		.cfi_offset 7, -8
 102              		.cfi_offset 14, -4
 103 0002 134F     		ldr	r7, .L17
 104 0004 83B0     		sub	sp, sp, #12
 105              		.cfi_def_cfa_offset 32
 106              		.loc 1 27 0
 107 0006 3B68     		ldr	r3, [r7]
 108 0008 0193     		str	r3, [sp, #4]
 109 000a 0646     		mov	r6, r0
 110 000c 0C46     		mov	r4, r1
 111              		.loc 1 28 0
 112 000e FFF7FEFF 		bl	left_motor_get_pos
 113              	.LVL6:
 114              		.loc 1 30 0
ARM GAS  C:\Users\Valentin\AppData\Local\Temp\ccc5PWz7.s 			page 3


 115 0012 6423     		movs	r3, #100
 116 0014 03FB0606 		mla	r6, r3, r6, r0
 117              	.LVL7:
 118 0018 002E     		cmp	r6, #0
 119 001a 0ADD     		ble	.L10
 120              	.LVL8:
 121              	.L11:
 122              		.loc 1 31 0
 123 001c FFF7FEFF 		bl	left_motor_get_pos
 124              	.LVL9:
 125 0020 0546     		mov	r5, r0
 126              	.LVL10:
 127              		.loc 1 32 0
 128 0022 2046     		mov	r0, r4
 129              	.LVL11:
 130 0024 FFF7FEFF 		bl	left_motor_set_speed
 131              	.LVL12:
 132              		.loc 1 33 0
 133 0028 2046     		mov	r0, r4
 134 002a FFF7FEFF 		bl	right_motor_set_speed
 135              	.LVL13:
 136              		.loc 1 30 0
 137 002e B542     		cmp	r5, r6
 138 0030 F4DB     		blt	.L11
 139              	.LVL14:
 140              	.L10:
 141              	.LBB7:
 142              	.LBB8:
 143              		.loc 1 82 0
 144 0032 0020     		movs	r0, #0
 145 0034 FFF7FEFF 		bl	left_motor_set_speed
 146              	.LVL15:
 147              		.loc 1 83 0
 148 0038 019A     		ldr	r2, [sp, #4]
 149 003a 3B68     		ldr	r3, [r7]
 150 003c 9A42     		cmp	r2, r3
 151 003e 05D1     		bne	.L16
 152 0040 0020     		movs	r0, #0
 153              	.LBE8:
 154              	.LBE7:
 155              		.loc 1 36 0
 156 0042 03B0     		add	sp, sp, #12
 157              		.cfi_remember_state
 158              		.cfi_def_cfa_offset 20
 159              		@ sp needed
 160 0044 BDE8F040 		pop	{r4, r5, r6, r7, lr}
 161              		.cfi_restore 14
 162              		.cfi_restore 7
 163              		.cfi_restore 6
 164              		.cfi_restore 5
 165              		.cfi_restore 4
 166              		.cfi_def_cfa_offset 0
 167              	.LVL16:
 168              	.LBB10:
 169              	.LBB9:
 170              		.loc 1 83 0
 171 0048 FFF7FEBF 		b	right_motor_set_speed
ARM GAS  C:\Users\Valentin\AppData\Local\Temp\ccc5PWz7.s 			page 4


 172              	.LVL17:
 173              	.L16:
 174              		.cfi_restore_state
 175 004c FFF7FEFF 		bl	__stack_chk_fail
 176              	.LVL18:
 177              	.L18:
 178              		.align	2
 179              	.L17:
 180 0050 00000000 		.word	__stack_chk_guard
 181              	.LBE9:
 182              	.LBE10:
 183              		.cfi_endproc
 184              	.LFE260:
 185              		.size	move_str_dist, .-move_str_dist
 186              		.section	.text.turn_right,"ax",%progbits
 187              		.align	1
 188              		.p2align 4,,15
 189              		.global	turn_right
 190              		.syntax unified
 191              		.thumb
 192              		.thumb_func
 193              		.fpu fpv4-sp-d16
 194              		.type	turn_right, %function
 195              	turn_right:
 196              	.LFB261:
 197              		.loc 1 38 0
 198              		.cfi_startproc
 199              		@ args = 0, pretend = 0, frame = 8
 200              		@ frame_needed = 0, uses_anonymous_args = 0
 201              	.LVL19:
 202 0000 70B5     		push	{r4, r5, r6, lr}
 203              		.cfi_def_cfa_offset 16
 204              		.cfi_offset 4, -16
 205              		.cfi_offset 5, -12
 206              		.cfi_offset 6, -8
 207              		.cfi_offset 14, -4
 208 0002 2DED028B 		vpush.64	{d8}
 209              		.cfi_def_cfa_offset 24
 210              		.cfi_offset 80, -24
 211              		.cfi_offset 81, -20
 212 0006 1A4E     		ldr	r6, .L28
 213              		.loc 1 41 0
 214 0008 9FED1A8A 		vldr.32	s16, .L28+4
 215              		.loc 1 38 0
 216 000c 3368     		ldr	r3, [r6]
 217 000e 82B0     		sub	sp, sp, #8
 218              		.cfi_def_cfa_offset 32
 219              		.loc 1 38 0
 220 0010 0446     		mov	r4, r0
 221              		.loc 1 39 0
 222 0012 0020     		movs	r0, #0
 223              	.LVL20:
 224              		.loc 1 38 0
 225 0014 0193     		str	r3, [sp, #4]
 226              		.loc 1 39 0
 227 0016 FFF7FEFF 		bl	right_motor_set_pos
 228              	.LVL21:
ARM GAS  C:\Users\Valentin\AppData\Local\Temp\ccc5PWz7.s 			page 5


 229              		.loc 1 40 0
 230 001a 0020     		movs	r0, #0
 231              		.loc 1 42 0
 232 001c 6542     		negs	r5, r4
 233              		.loc 1 40 0
 234 001e FFF7FEFF 		bl	left_motor_set_pos
 235              	.LVL22:
 236              		.loc 1 41 0
 237 0022 10E0     		b	.L20
 238              	.L26:
 239              		.loc 1 41 0 is_stmt 0 discriminator 1
 240 0024 FFF7FEFF 		bl	right_motor_get_pos
 241              	.LVL23:
 242 0028 07EE900A 		vmov	s15, r0	@ int
 243 002c F8EEE77A 		vcvt.f32.s32	s15, s15
 244 0030 F4EEC87A 		vcmpe.f32	s15, s16
 245 0034 F1EE10FA 		vmrs	APSR_nzcv, FPSCR
 246 0038 10D5     		bpl	.L19
 247              		.loc 1 42 0 is_stmt 1
 248 003a 2846     		mov	r0, r5
 249 003c FFF7FEFF 		bl	right_motor_set_speed
 250              	.LVL24:
 251              		.loc 1 43 0
 252 0040 2046     		mov	r0, r4
 253 0042 FFF7FEFF 		bl	left_motor_set_speed
 254              	.LVL25:
 255              	.L20:
 256              		.loc 1 41 0
 257 0046 FFF7FEFF 		bl	left_motor_get_pos
 258              	.LVL26:
 259 004a 07EE900A 		vmov	s15, r0	@ int
 260 004e F8EEE77A 		vcvt.f32.s32	s15, s15
 261 0052 F4EEC87A 		vcmpe.f32	s15, s16
 262 0056 F1EE10FA 		vmrs	APSR_nzcv, FPSCR
 263 005a E3D4     		bmi	.L26
 264              	.L19:
 265              		.loc 1 45 0
 266 005c 019A     		ldr	r2, [sp, #4]
 267 005e 3368     		ldr	r3, [r6]
 268 0060 9A42     		cmp	r2, r3
 269 0062 03D1     		bne	.L27
 270 0064 02B0     		add	sp, sp, #8
 271              		.cfi_remember_state
 272              		.cfi_def_cfa_offset 24
 273              		@ sp needed
 274 0066 BDEC028B 		vldm	sp!, {d8}
 275              		.cfi_restore 80
 276              		.cfi_restore 81
 277              		.cfi_def_cfa_offset 16
 278 006a 70BD     		pop	{r4, r5, r6, pc}
 279              	.LVL27:
 280              	.L27:
 281              		.cfi_restore_state
 282 006c FFF7FEFF 		bl	__stack_chk_fail
 283              	.LVL28:
 284              	.L29:
 285              		.align	2
ARM GAS  C:\Users\Valentin\AppData\Local\Temp\ccc5PWz7.s 			page 6


 286              	.L28:
 287 0070 00000000 		.word	__stack_chk_guard
 288 0074 92DFA343 		.word	1134813074
 289              		.cfi_endproc
 290              	.LFE261:
 291              		.size	turn_right, .-turn_right
 292              		.section	.text.turn_left,"ax",%progbits
 293              		.align	1
 294              		.p2align 4,,15
 295              		.global	turn_left
 296              		.syntax unified
 297              		.thumb
 298              		.thumb_func
 299              		.fpu fpv4-sp-d16
 300              		.type	turn_left, %function
 301              	turn_left:
 302              	.LFB262:
 303              		.loc 1 48 0
 304              		.cfi_startproc
 305              		@ args = 0, pretend = 0, frame = 8
 306              		@ frame_needed = 0, uses_anonymous_args = 0
 307              	.LVL29:
 308 0000 70B5     		push	{r4, r5, r6, lr}
 309              		.cfi_def_cfa_offset 16
 310              		.cfi_offset 4, -16
 311              		.cfi_offset 5, -12
 312              		.cfi_offset 6, -8
 313              		.cfi_offset 14, -4
 314 0002 2DED028B 		vpush.64	{d8}
 315              		.cfi_def_cfa_offset 24
 316              		.cfi_offset 80, -24
 317              		.cfi_offset 81, -20
 318 0006 1A4E     		ldr	r6, .L39
 319              		.loc 1 51 0
 320 0008 9FED1A8A 		vldr.32	s16, .L39+4
 321              		.loc 1 48 0
 322 000c 3368     		ldr	r3, [r6]
 323 000e 82B0     		sub	sp, sp, #8
 324              		.cfi_def_cfa_offset 32
 325              		.loc 1 48 0
 326 0010 0446     		mov	r4, r0
 327              		.loc 1 49 0
 328 0012 0020     		movs	r0, #0
 329              	.LVL30:
 330              		.loc 1 48 0
 331 0014 0193     		str	r3, [sp, #4]
 332              		.loc 1 49 0
 333 0016 FFF7FEFF 		bl	right_motor_set_pos
 334              	.LVL31:
 335              		.loc 1 50 0
 336 001a 0020     		movs	r0, #0
 337              		.loc 1 53 0
 338 001c 6542     		negs	r5, r4
 339              		.loc 1 50 0
 340 001e FFF7FEFF 		bl	left_motor_set_pos
 341              	.LVL32:
 342              		.loc 1 51 0
ARM GAS  C:\Users\Valentin\AppData\Local\Temp\ccc5PWz7.s 			page 7


 343 0022 10E0     		b	.L31
 344              	.L37:
 345              		.loc 1 51 0 is_stmt 0 discriminator 1
 346 0024 FFF7FEFF 		bl	right_motor_get_pos
 347              	.LVL33:
 348 0028 07EE900A 		vmov	s15, r0	@ int
 349 002c F8EEE77A 		vcvt.f32.s32	s15, s15
 350 0030 F4EEC87A 		vcmpe.f32	s15, s16
 351 0034 F1EE10FA 		vmrs	APSR_nzcv, FPSCR
 352 0038 10D5     		bpl	.L30
 353              		.loc 1 52 0 is_stmt 1
 354 003a 2046     		mov	r0, r4
 355 003c FFF7FEFF 		bl	right_motor_set_speed
 356              	.LVL34:
 357              		.loc 1 53 0
 358 0040 2846     		mov	r0, r5
 359 0042 FFF7FEFF 		bl	left_motor_set_speed
 360              	.LVL35:
 361              	.L31:
 362              		.loc 1 51 0
 363 0046 FFF7FEFF 		bl	left_motor_get_pos
 364              	.LVL36:
 365 004a 07EE900A 		vmov	s15, r0	@ int
 366 004e F8EEE77A 		vcvt.f32.s32	s15, s15
 367 0052 F4EEC87A 		vcmpe.f32	s15, s16
 368 0056 F1EE10FA 		vmrs	APSR_nzcv, FPSCR
 369 005a E3D4     		bmi	.L37
 370              	.L30:
 371              		.loc 1 55 0
 372 005c 019A     		ldr	r2, [sp, #4]
 373 005e 3368     		ldr	r3, [r6]
 374 0060 9A42     		cmp	r2, r3
 375 0062 03D1     		bne	.L38
 376 0064 02B0     		add	sp, sp, #8
 377              		.cfi_remember_state
 378              		.cfi_def_cfa_offset 24
 379              		@ sp needed
 380 0066 BDEC028B 		vldm	sp!, {d8}
 381              		.cfi_restore 80
 382              		.cfi_restore 81
 383              		.cfi_def_cfa_offset 16
 384 006a 70BD     		pop	{r4, r5, r6, pc}
 385              	.LVL37:
 386              	.L38:
 387              		.cfi_restore_state
 388 006c FFF7FEFF 		bl	__stack_chk_fail
 389              	.LVL38:
 390              	.L40:
 391              		.align	2
 392              	.L39:
 393 0070 00000000 		.word	__stack_chk_guard
 394 0074 92DFA343 		.word	1134813074
 395              		.cfi_endproc
 396              	.LFE262:
 397              		.size	turn_left, .-turn_left
 398              		.section	.text.u_turn,"ax",%progbits
 399              		.align	1
ARM GAS  C:\Users\Valentin\AppData\Local\Temp\ccc5PWz7.s 			page 8


 400              		.p2align 4,,15
 401              		.global	u_turn
 402              		.syntax unified
 403              		.thumb
 404              		.thumb_func
 405              		.fpu fpv4-sp-d16
 406              		.type	u_turn, %function
 407              	u_turn:
 408              	.LFB263:
 409              		.loc 1 58 0
 410              		.cfi_startproc
 411              		@ args = 0, pretend = 0, frame = 8
 412              		@ frame_needed = 0, uses_anonymous_args = 0
 413              	.LVL39:
 414 0000 70B5     		push	{r4, r5, r6, lr}
 415              		.cfi_def_cfa_offset 16
 416              		.cfi_offset 4, -16
 417              		.cfi_offset 5, -12
 418              		.cfi_offset 6, -8
 419              		.cfi_offset 14, -4
 420 0002 2DED028B 		vpush.64	{d8}
 421              		.cfi_def_cfa_offset 24
 422              		.cfi_offset 80, -24
 423              		.cfi_offset 81, -20
 424 0006 1A4E     		ldr	r6, .L50
 425              		.loc 1 61 0
 426 0008 9FED1A8A 		vldr.32	s16, .L50+4
 427              		.loc 1 58 0
 428 000c 3368     		ldr	r3, [r6]
 429 000e 82B0     		sub	sp, sp, #8
 430              		.cfi_def_cfa_offset 32
 431              		.loc 1 58 0
 432 0010 0446     		mov	r4, r0
 433              		.loc 1 59 0
 434 0012 0020     		movs	r0, #0
 435              	.LVL40:
 436              		.loc 1 58 0
 437 0014 0193     		str	r3, [sp, #4]
 438              		.loc 1 59 0
 439 0016 FFF7FEFF 		bl	right_motor_set_pos
 440              	.LVL41:
 441              		.loc 1 60 0
 442 001a 0020     		movs	r0, #0
 443              		.loc 1 63 0
 444 001c 6542     		negs	r5, r4
 445              		.loc 1 60 0
 446 001e FFF7FEFF 		bl	left_motor_set_pos
 447              	.LVL42:
 448              		.loc 1 61 0
 449 0022 10E0     		b	.L42
 450              	.L48:
 451              		.loc 1 61 0 is_stmt 0 discriminator 1
 452 0024 FFF7FEFF 		bl	right_motor_get_pos
 453              	.LVL43:
 454 0028 07EE900A 		vmov	s15, r0	@ int
 455 002c F8EEE77A 		vcvt.f32.s32	s15, s15
 456 0030 F4EEC87A 		vcmpe.f32	s15, s16
ARM GAS  C:\Users\Valentin\AppData\Local\Temp\ccc5PWz7.s 			page 9


 457 0034 F1EE10FA 		vmrs	APSR_nzcv, FPSCR
 458 0038 10D5     		bpl	.L41
 459              		.loc 1 62 0 is_stmt 1
 460 003a 2046     		mov	r0, r4
 461 003c FFF7FEFF 		bl	right_motor_set_speed
 462              	.LVL44:
 463              		.loc 1 63 0
 464 0040 2846     		mov	r0, r5
 465 0042 FFF7FEFF 		bl	left_motor_set_speed
 466              	.LVL45:
 467              	.L42:
 468              		.loc 1 61 0
 469 0046 FFF7FEFF 		bl	left_motor_get_pos
 470              	.LVL46:
 471 004a 07EE900A 		vmov	s15, r0	@ int
 472 004e F8EEE77A 		vcvt.f32.s32	s15, s15
 473 0052 F4EEC87A 		vcmpe.f32	s15, s16
 474 0056 F1EE10FA 		vmrs	APSR_nzcv, FPSCR
 475 005a E3D4     		bmi	.L48
 476              	.L41:
 477              		.loc 1 65 0
 478 005c 019A     		ldr	r2, [sp, #4]
 479 005e 3368     		ldr	r3, [r6]
 480 0060 9A42     		cmp	r2, r3
 481 0062 03D1     		bne	.L49
 482 0064 02B0     		add	sp, sp, #8
 483              		.cfi_remember_state
 484              		.cfi_def_cfa_offset 24
 485              		@ sp needed
 486 0066 BDEC028B 		vldm	sp!, {d8}
 487              		.cfi_restore 80
 488              		.cfi_restore 81
 489              		.cfi_def_cfa_offset 16
 490 006a 70BD     		pop	{r4, r5, r6, pc}
 491              	.LVL47:
 492              	.L49:
 493              		.cfi_restore_state
 494 006c FFF7FEFF 		bl	__stack_chk_fail
 495              	.LVL48:
 496              	.L51:
 497              		.align	2
 498              	.L50:
 499 0070 00000000 		.word	__stack_chk_guard
 500 0074 92DF2344 		.word	1143201682
 501              		.cfi_endproc
 502              	.LFE263:
 503              		.size	u_turn, .-u_turn
 504              		.section	.text.spin,"ax",%progbits
 505              		.align	1
 506              		.p2align 4,,15
 507              		.global	spin
 508              		.syntax unified
 509              		.thumb
 510              		.thumb_func
 511              		.fpu fpv4-sp-d16
 512              		.type	spin, %function
 513              	spin:
ARM GAS  C:\Users\Valentin\AppData\Local\Temp\ccc5PWz7.s 			page 10


 514              	.LFB264:
 515              		.loc 1 68 0
 516              		.cfi_startproc
 517              		@ args = 0, pretend = 0, frame = 8
 518              		@ frame_needed = 0, uses_anonymous_args = 0
 519              	.LVL49:
 520 0000 2DE9F041 		push	{r4, r5, r6, r7, r8, lr}
 521              		.cfi_def_cfa_offset 24
 522              		.cfi_offset 4, -24
 523              		.cfi_offset 5, -20
 524              		.cfi_offset 6, -16
 525              		.cfi_offset 7, -12
 526              		.cfi_offset 8, -8
 527              		.cfi_offset 14, -4
 528 0004 2DED028B 		vpush.64	{d8}
 529              		.cfi_def_cfa_offset 32
 530              		.cfi_offset 80, -32
 531              		.cfi_offset 81, -28
 532 0008 DFF88080 		ldr	r8, .L63+4
 533 000c 82B0     		sub	sp, sp, #8
 534              		.cfi_def_cfa_offset 40
 535              		.loc 1 68 0
 536 000e D8F80030 		ldr	r3, [r8]
 537 0012 0193     		str	r3, [sp, #4]
 538              	.LVL50:
 539              		.loc 1 70 0
 540 0014 0F1E     		subs	r7, r1, #0
 541 0016 2ADD     		ble	.L52
 542              		.loc 1 73 0
 543 0018 9FED1B8A 		vldr.32	s16, .L63
 544 001c 0446     		mov	r4, r0
 545              		.loc 1 69 0
 546 001e 0026     		movs	r6, #0
 547              		.loc 1 75 0
 548 0020 4542     		negs	r5, r0
 549              	.LVL51:
 550              	.L56:
 551              		.loc 1 71 0
 552 0022 0020     		movs	r0, #0
 553 0024 FFF7FEFF 		bl	right_motor_set_pos
 554              	.LVL52:
 555              		.loc 1 72 0
 556 0028 0020     		movs	r0, #0
 557 002a FFF7FEFF 		bl	left_motor_set_pos
 558              	.LVL53:
 559              		.loc 1 73 0
 560 002e 10E0     		b	.L54
 561              	.L55:
 562              		.loc 1 73 0 is_stmt 0 discriminator 1
 563 0030 FFF7FEFF 		bl	right_motor_get_pos
 564              	.LVL54:
 565 0034 07EE900A 		vmov	s15, r0	@ int
 566 0038 F8EEE77A 		vcvt.f32.s32	s15, s15
 567 003c F4EEC87A 		vcmpe.f32	s15, s16
 568 0040 F1EE10FA 		vmrs	APSR_nzcv, FPSCR
 569 0044 10D5     		bpl	.L58
 570              		.loc 1 74 0 is_stmt 1
ARM GAS  C:\Users\Valentin\AppData\Local\Temp\ccc5PWz7.s 			page 11


 571 0046 2046     		mov	r0, r4
 572 0048 FFF7FEFF 		bl	right_motor_set_speed
 573              	.LVL55:
 574              		.loc 1 75 0
 575 004c 2846     		mov	r0, r5
 576 004e FFF7FEFF 		bl	left_motor_set_speed
 577              	.LVL56:
 578              	.L54:
 579              		.loc 1 73 0
 580 0052 FFF7FEFF 		bl	left_motor_get_pos
 581              	.LVL57:
 582 0056 07EE900A 		vmov	s15, r0	@ int
 583 005a F8EEE77A 		vcvt.f32.s32	s15, s15
 584 005e F4EEC87A 		vcmpe.f32	s15, s16
 585 0062 F1EE10FA 		vmrs	APSR_nzcv, FPSCR
 586 0066 E3D4     		bmi	.L55
 587              	.L58:
 588              		.loc 1 77 0
 589 0068 0136     		adds	r6, r6, #1
 590              	.LVL58:
 591              		.loc 1 70 0
 592 006a B742     		cmp	r7, r6
 593 006c D9D1     		bne	.L56
 594              	.LVL59:
 595              	.L52:
 596              		.loc 1 79 0
 597 006e 019A     		ldr	r2, [sp, #4]
 598 0070 D8F80030 		ldr	r3, [r8]
 599 0074 9A42     		cmp	r2, r3
 600 0076 04D1     		bne	.L62
 601 0078 02B0     		add	sp, sp, #8
 602              		.cfi_remember_state
 603              		.cfi_def_cfa_offset 32
 604              		@ sp needed
 605 007a BDEC028B 		vldm	sp!, {d8}
 606              		.cfi_restore 80
 607              		.cfi_restore 81
 608              		.cfi_def_cfa_offset 24
 609 007e BDE8F081 		pop	{r4, r5, r6, r7, r8, pc}
 610              	.LVL60:
 611              	.L62:
 612              		.cfi_restore_state
 613 0082 FFF7FEFF 		bl	__stack_chk_fail
 614              	.LVL61:
 615              	.L64:
 616 0086 00BF     		.align	2
 617              	.L63:
 618 0088 92DFA344 		.word	1151590290
 619 008c 00000000 		.word	__stack_chk_guard
 620              		.cfi_endproc
 621              	.LFE264:
 622              		.size	spin, .-spin
 623              		.section	.text.stopMotors,"ax",%progbits
 624              		.align	1
 625              		.p2align 4,,15
 626              		.global	stopMotors
 627              		.syntax unified
ARM GAS  C:\Users\Valentin\AppData\Local\Temp\ccc5PWz7.s 			page 12


 628              		.thumb
 629              		.thumb_func
 630              		.fpu fpv4-sp-d16
 631              		.type	stopMotors, %function
 632              	stopMotors:
 633              	.LFB265:
 634              		.loc 1 81 0
 635              		.cfi_startproc
 636              		@ args = 0, pretend = 0, frame = 8
 637              		@ frame_needed = 0, uses_anonymous_args = 0
 638 0000 10B5     		push	{r4, lr}
 639              		.cfi_def_cfa_offset 8
 640              		.cfi_offset 4, -8
 641              		.cfi_offset 14, -4
 642 0002 094C     		ldr	r4, .L70
 643 0004 82B0     		sub	sp, sp, #8
 644              		.cfi_def_cfa_offset 16
 645              		.loc 1 81 0
 646 0006 2368     		ldr	r3, [r4]
 647 0008 0193     		str	r3, [sp, #4]
 648              		.loc 1 82 0
 649 000a 0020     		movs	r0, #0
 650 000c FFF7FEFF 		bl	left_motor_set_speed
 651              	.LVL62:
 652              		.loc 1 83 0
 653 0010 019A     		ldr	r2, [sp, #4]
 654 0012 2368     		ldr	r3, [r4]
 655 0014 9A42     		cmp	r2, r3
 656 0016 05D1     		bne	.L69
 657 0018 0020     		movs	r0, #0
 658              		.loc 1 85 0
 659 001a 02B0     		add	sp, sp, #8
 660              		.cfi_remember_state
 661              		.cfi_def_cfa_offset 8
 662              		@ sp needed
 663 001c BDE81040 		pop	{r4, lr}
 664              		.cfi_restore 14
 665              		.cfi_restore 4
 666              		.cfi_def_cfa_offset 0
 667              		.loc 1 83 0
 668 0020 FFF7FEBF 		b	right_motor_set_speed
 669              	.LVL63:
 670              	.L69:
 671              		.cfi_restore_state
 672 0024 FFF7FEFF 		bl	__stack_chk_fail
 673              	.LVL64:
 674              	.L71:
 675              		.align	2
 676              	.L70:
 677 0028 00000000 		.word	__stack_chk_guard
 678              		.cfi_endproc
 679              	.LFE265:
 680              		.size	stopMotors, .-stopMotors
 681              		.section	.text.show_panic,"ax",%progbits
 682              		.align	1
 683              		.p2align 4,,15
 684              		.global	show_panic
ARM GAS  C:\Users\Valentin\AppData\Local\Temp\ccc5PWz7.s 			page 13


 685              		.syntax unified
 686              		.thumb
 687              		.thumb_func
 688              		.fpu fpv4-sp-d16
 689              		.type	show_panic, %function
 690              	show_panic:
 691              	.LFB266:
 692              		.loc 1 87 0
 693              		.cfi_startproc
 694              		@ args = 0, pretend = 0, frame = 8
 695              		@ frame_needed = 0, uses_anonymous_args = 0
 696              	.LVL65:
 697 0000 2DE9F041 		push	{r4, r5, r6, r7, r8, lr}
 698              		.cfi_def_cfa_offset 24
 699              		.cfi_offset 4, -24
 700              		.cfi_offset 5, -20
 701              		.cfi_offset 6, -16
 702              		.cfi_offset 7, -12
 703              		.cfi_offset 8, -8
 704              		.cfi_offset 14, -4
 705 0004 2DED028B 		vpush.64	{d8}
 706              		.cfi_def_cfa_offset 32
 707              		.cfi_offset 80, -32
 708              		.cfi_offset 81, -28
 709 0008 DFF82C81 		ldr	r8, .L93+8
 710              		.loc 1 90 0
 711 000c 9FED488A 		vldr.32	s16, .L93
 712              		.loc 1 87 0
 713 0010 D8F80030 		ldr	r3, [r8]
 714 0014 82B0     		sub	sp, sp, #8
 715              		.cfi_def_cfa_offset 40
 716              		.loc 1 87 0
 717 0016 0446     		mov	r4, r0
 718              		.loc 1 88 0
 719 0018 0020     		movs	r0, #0
 720              	.LVL66:
 721              		.loc 1 87 0
 722 001a 0193     		str	r3, [sp, #4]
 723 001c 0F46     		mov	r7, r1
 724              		.loc 1 88 0
 725 001e FFF7FEFF 		bl	right_motor_set_pos
 726              	.LVL67:
 727              		.loc 1 89 0
 728 0022 0020     		movs	r0, #0
 729              		.loc 1 92 0
 730 0024 6542     		negs	r5, r4
 731              		.loc 1 89 0
 732 0026 FFF7FEFF 		bl	left_motor_set_pos
 733              	.LVL68:
 734              		.loc 1 90 0
 735 002a 10E0     		b	.L73
 736              	.L74:
 737              		.loc 1 90 0 is_stmt 0 discriminator 1
 738 002c FFF7FEFF 		bl	right_motor_get_pos
 739              	.LVL69:
 740 0030 07EE900A 		vmov	s15, r0	@ int
 741 0034 F8EEE77A 		vcvt.f32.s32	s15, s15
ARM GAS  C:\Users\Valentin\AppData\Local\Temp\ccc5PWz7.s 			page 14


 742 0038 F4EEC87A 		vcmpe.f32	s15, s16
 743 003c F1EE10FA 		vmrs	APSR_nzcv, FPSCR
 744 0040 10D5     		bpl	.L78
 745              		.loc 1 91 0 is_stmt 1
 746 0042 2046     		mov	r0, r4
 747 0044 FFF7FEFF 		bl	right_motor_set_speed
 748              	.LVL70:
 749              		.loc 1 92 0
 750 0048 2846     		mov	r0, r5
 751 004a FFF7FEFF 		bl	left_motor_set_speed
 752              	.LVL71:
 753              	.L73:
 754              		.loc 1 90 0
 755 004e FFF7FEFF 		bl	left_motor_get_pos
 756              	.LVL72:
 757 0052 07EE900A 		vmov	s15, r0	@ int
 758 0056 F8EEE77A 		vcvt.f32.s32	s15, s15
 759 005a F4EEC87A 		vcmpe.f32	s15, s16
 760 005e F1EE10FA 		vmrs	APSR_nzcv, FPSCR
 761 0062 E3D4     		bmi	.L74
 762              	.L78:
 763              	.LVL73:
 764              	.LBB11:
 765              		.loc 1 94 0
 766 0064 002F     		cmp	r7, #0
 767 0066 4DDD     		ble	.L76
 768              		.loc 1 97 0
 769 0068 9FED328A 		vldr.32	s16, .L93+4
 770              		.loc 1 94 0
 771 006c 0026     		movs	r6, #0
 772              		.loc 1 98 0
 773 006e 6542     		negs	r5, r4
 774              	.LVL74:
 775              	.L75:
 776              		.loc 1 95 0
 777 0070 0020     		movs	r0, #0
 778 0072 FFF7FEFF 		bl	right_motor_set_pos
 779              	.LVL75:
 780              		.loc 1 96 0
 781 0076 0020     		movs	r0, #0
 782 0078 FFF7FEFF 		bl	left_motor_set_pos
 783              	.LVL76:
 784              		.loc 1 97 0
 785 007c 10E0     		b	.L79
 786              	.L80:
 787              		.loc 1 97 0 is_stmt 0 discriminator 1
 788 007e FFF7FEFF 		bl	right_motor_get_pos
 789              	.LVL77:
 790 0082 07EE900A 		vmov	s15, r0	@ int
 791 0086 F8EEE77A 		vcvt.f32.s32	s15, s15
 792 008a F4EEC87A 		vcmpe.f32	s15, s16
 793 008e F1EE10FA 		vmrs	APSR_nzcv, FPSCR
 794 0092 10D5     		bpl	.L83
 795              		.loc 1 98 0 is_stmt 1
 796 0094 2846     		mov	r0, r5
 797 0096 FFF7FEFF 		bl	right_motor_set_speed
 798              	.LVL78:
ARM GAS  C:\Users\Valentin\AppData\Local\Temp\ccc5PWz7.s 			page 15


 799              		.loc 1 99 0
 800 009a 2046     		mov	r0, r4
 801 009c FFF7FEFF 		bl	left_motor_set_speed
 802              	.LVL79:
 803              	.L79:
 804              		.loc 1 97 0
 805 00a0 FFF7FEFF 		bl	left_motor_get_pos
 806              	.LVL80:
 807 00a4 07EE900A 		vmov	s15, r0	@ int
 808 00a8 F8EEE77A 		vcvt.f32.s32	s15, s15
 809 00ac F4EEC87A 		vcmpe.f32	s15, s16
 810 00b0 F1EE10FA 		vmrs	APSR_nzcv, FPSCR
 811 00b4 E3D4     		bmi	.L80
 812              	.L83:
 813              		.loc 1 101 0
 814 00b6 0020     		movs	r0, #0
 815 00b8 FFF7FEFF 		bl	right_motor_set_pos
 816              	.LVL81:
 817              		.loc 1 102 0
 818 00bc 0020     		movs	r0, #0
 819 00be FFF7FEFF 		bl	left_motor_set_pos
 820              	.LVL82:
 821              		.loc 1 103 0
 822 00c2 10E0     		b	.L81
 823              	.L84:
 824              		.loc 1 103 0 is_stmt 0 discriminator 1
 825 00c4 FFF7FEFF 		bl	right_motor_get_pos
 826              	.LVL83:
 827 00c8 07EE900A 		vmov	s15, r0	@ int
 828 00cc F8EEE77A 		vcvt.f32.s32	s15, s15
 829 00d0 F4EEC87A 		vcmpe.f32	s15, s16
 830 00d4 F1EE10FA 		vmrs	APSR_nzcv, FPSCR
 831 00d8 10D5     		bpl	.L86
 832              		.loc 1 104 0 is_stmt 1
 833 00da 2046     		mov	r0, r4
 834 00dc FFF7FEFF 		bl	right_motor_set_speed
 835              	.LVL84:
 836              		.loc 1 105 0
 837 00e0 2846     		mov	r0, r5
 838 00e2 FFF7FEFF 		bl	left_motor_set_speed
 839              	.LVL85:
 840              	.L81:
 841              		.loc 1 103 0
 842 00e6 FFF7FEFF 		bl	left_motor_get_pos
 843              	.LVL86:
 844 00ea 07EE900A 		vmov	s15, r0	@ int
 845 00ee F8EEE77A 		vcvt.f32.s32	s15, s15
 846 00f2 F4EEC87A 		vcmpe.f32	s15, s16
 847 00f6 F1EE10FA 		vmrs	APSR_nzcv, FPSCR
 848 00fa E3D4     		bmi	.L84
 849              	.L86:
 850              		.loc 1 94 0
 851 00fc 0136     		adds	r6, r6, #1
 852              	.LVL87:
 853 00fe F6B2     		uxtb	r6, r6
 854              	.LVL88:
 855 0100 BE42     		cmp	r6, r7
ARM GAS  C:\Users\Valentin\AppData\Local\Temp\ccc5PWz7.s 			page 16


 856 0102 B5DB     		blt	.L75
 857              	.LVL89:
 858              	.L76:
 859              	.LBE11:
 860              	.LBB12:
 861              	.LBB13:
 862              		.loc 1 82 0
 863 0104 0020     		movs	r0, #0
 864 0106 FFF7FEFF 		bl	left_motor_set_speed
 865              	.LVL90:
 866              		.loc 1 83 0
 867 010a 0020     		movs	r0, #0
 868 010c FFF7FEFF 		bl	right_motor_set_speed
 869              	.LVL91:
 870              	.LBE13:
 871              	.LBE12:
 872              		.loc 1 109 0
 873 0110 019A     		ldr	r2, [sp, #4]
 874 0112 D8F80030 		ldr	r3, [r8]
 875 0116 9A42     		cmp	r2, r3
 876 0118 07D1     		bne	.L92
 877 011a 3846     		mov	r0, r7
 878              		.loc 1 110 0
 879 011c 02B0     		add	sp, sp, #8
 880              		.cfi_remember_state
 881              		.cfi_def_cfa_offset 32
 882              		@ sp needed
 883 011e BDEC028B 		vldm	sp!, {d8}
 884              		.cfi_restore 80
 885              		.cfi_restore 81
 886              		.cfi_def_cfa_offset 24
 887 0122 BDE8F041 		pop	{r4, r5, r6, r7, r8, lr}
 888              		.cfi_restore 14
 889              		.cfi_restore 8
 890              		.cfi_restore 7
 891              		.cfi_restore 6
 892              		.cfi_restore 5
 893              		.cfi_restore 4
 894              		.cfi_def_cfa_offset 0
 895              	.LVL92:
 896              		.loc 1 109 0
 897 0126 FFF7FEBF 		b	leds_think
 898              	.LVL93:
 899              	.L92:
 900              		.cfi_restore_state
 901 012a FFF7FEFF 		bl	__stack_chk_fail
 902              	.LVL94:
 903              	.L94:
 904 012e 00BF     		.align	2
 905              	.L93:
 906 0130 92DFA342 		.word	1118035858
 907 0134 92DF2343 		.word	1126424466
 908 0138 00000000 		.word	__stack_chk_guard
 909              		.cfi_endproc
 910              	.LFE266:
 911              		.size	show_panic, .-show_panic
 912              		.text
ARM GAS  C:\Users\Valentin\AppData\Local\Temp\ccc5PWz7.s 			page 17


 913              	.Letext0:
 914              		.file 2 "c:\\users\\valentin\\desktop\\eclipse_e-puck2\\tools\\gcc-arm-none-eabi-7-2017-q4-major-w
 915              		.file 3 "c:\\users\\valentin\\desktop\\eclipse_e-puck2\\tools\\gcc-arm-none-eabi-7-2017-q4-major-w
 916              		.file 4 "c:\\users\\valentin\\desktop\\eclipse_e-puck2\\tools\\gcc-arm-none-eabi-7-2017-q4-major-w
 917              		.file 5 "c:\\users\\valentin\\desktop\\eclipse_e-puck2\\tools\\gcc-arm-none-eabi-7-2017-q4-major-w
 918              		.file 6 "c:\\users\\valentin\\desktop\\eclipse_e-puck2\\tools\\gcc-arm-none-eabi-7-2017-q4-major-w
 919              		.file 7 "c:\\users\\valentin\\desktop\\eclipse_e-puck2\\tools\\gcc-arm-none-eabi-7-2017-q4-major-w
 920              		.file 8 "c:\\users\\valentin\\desktop\\eclipse_e-puck2\\tools\\gcc-arm-none-eabi-7-2017-q4-major-w
 921              		.file 9 "c:\\users\\valentin\\desktop\\eclipse_e-puck2\\tools\\gcc-arm-none-eabi-7-2017-q4-major-w
 922              		.file 10 "../e-puck2_main-processor/ChibiOS//os/rt/ports/ARMCMx/compilers/GCC/chtypes.h"
 923              		.file 11 "../e-puck2_main-processor/ChibiOS//os/rt/include/chsystypes.h"
 924              		.file 12 "../e-puck2_main-processor/ChibiOS//os/rt/include/chschd.h"
 925              		.file 13 "../e-puck2_main-processor/ChibiOS//os/ext/CMSIS/include/core_cm4.h"
 926              		.file 14 "../e-puck2_main-processor/ChibiOS//os/ext/CMSIS/ST/system_stm32f4xx.h"
 927              		.file 15 "../e-puck2_main-processor/ChibiOS//os/ext/CMSIS/ST/stm32f407xx.h"
 928              		.file 16 "../e-puck2_main-processor/ChibiOS//os/rt/ports/ARMCMx/chcore.h"
 929              		.file 17 "../e-puck2_main-processor/ChibiOS//os/rt/ports/ARMCMx/chcore_v7m.h"
 930              		.file 18 "../e-puck2_main-processor/ChibiOS//os/rt/include/chdebug.h"
 931              		.file 19 "../e-puck2_main-processor/ChibiOS//os/rt/include/chtm.h"
 932              		.file 20 "../e-puck2_main-processor/ChibiOS//os/rt/include/chstats.h"
 933              		.file 21 "../e-puck2_main-processor/ChibiOS//os/rt/include/chsem.h"
 934              		.file 22 "../e-puck2_main-processor/ChibiOS//os/rt/include/chmtx.h"
 935              		.file 23 "../e-puck2_main-processor/ChibiOS//os/rt/include/chregistry.h"
 936              		.file 24 "../e-puck2_main-processor/ChibiOS//os/rt/include/chevents.h"
 937              		.file 25 "../e-puck2_main-processor/ChibiOS//os/rt/include/chqueues.h"
 938              		.file 26 "../e-puck2_main-processor/ChibiOS//os/hal/ports/STM32/STM32F4xx/stm32_dma.h"
 939              		.file 27 "../e-puck2_main-processor/ChibiOS//os/hal/include/hal_ioblock.h"
 940              		.file 28 "../e-puck2_main-processor/ChibiOS//os/hal/ports/STM32/LLD/GPIOv2/pal_lld.h"
 941              		.file 29 "../e-puck2_main-processor/ChibiOS//os/hal/include/adc.h"
 942              		.file 30 "../e-puck2_main-processor/ChibiOS//os/hal/ports/STM32/STM32F4xx/adc_lld.h"
 943              		.file 31 "../e-puck2_main-processor/ChibiOS//os/hal/include/can.h"
 944              		.file 32 "../e-puck2_main-processor/ChibiOS//os/hal/ports/STM32/LLD/can_lld.h"
 945              		.file 33 "../e-puck2_main-processor/ChibiOS//os/hal/include/dac.h"
 946              		.file 34 "../e-puck2_main-processor/ChibiOS//os/hal/ports/STM32/LLD/DACv1/dac_lld.h"
 947              		.file 35 "../e-puck2_main-processor/ChibiOS//os/hal/include/ext.h"
 948              		.file 36 "../e-puck2_main-processor/ChibiOS//os/hal/ports/STM32/LLD/ext_lld.h"
 949              		.file 37 "../e-puck2_main-processor/ChibiOS//os/hal/include/gpt.h"
 950              		.file 38 "../e-puck2_main-processor/ChibiOS//os/hal/ports/STM32/LLD/TIMv1/gpt_lld.h"
 951              		.file 39 "../e-puck2_main-processor/ChibiOS//os/hal/ports/STM32/LLD/TIMv1/stm32_tim.h"
 952              		.file 40 "../e-puck2_main-processor/ChibiOS//os/hal/include/i2c.h"
 953              		.file 41 "../e-puck2_main-processor/ChibiOS//os/hal/ports/STM32/LLD/I2Cv1/i2c_lld.h"
 954              		.file 42 "../e-puck2_main-processor/ChibiOS//os/hal/include/i2s.h"
 955              		.file 43 "../e-puck2_main-processor/ChibiOS//os/hal/ports/STM32/LLD/SPIv1/i2s_lld.h"
 956              		.file 44 "../e-puck2_main-processor/ChibiOS//os/hal/include/pwm.h"
 957              		.file 45 "../e-puck2_main-processor/ChibiOS//os/hal/ports/STM32/LLD/TIMv1/pwm_lld.h"
 958              		.file 46 "../e-puck2_main-processor/ChibiOS//os/hal/include/serial.h"
 959              		.file 47 "../e-puck2_main-processor/ChibiOS//os/hal/ports/STM32/LLD/USARTv1/serial_lld.h"
 960              		.file 48 "../e-puck2_main-processor/ChibiOS//os/hal/include/sdc.h"
 961              		.file 49 "../e-puck2_main-processor/ChibiOS//os/hal/ports/STM32/LLD/sdc_lld.h"
 962              		.file 50 "../e-puck2_main-processor/ChibiOS//os/hal/include/spi.h"
 963              		.file 51 "../e-puck2_main-processor/ChibiOS//os/hal/ports/STM32/LLD/SPIv1/spi_lld.h"
 964              		.file 52 "../e-puck2_main-processor/ChibiOS//os/hal/include/usb.h"
 965              		.file 53 "../e-puck2_main-processor/ChibiOS//os/hal/ports/STM32/LLD/OTGv1/usb_lld.h"
 966              		.file 54 "../e-puck2_main-processor/ChibiOS//os/hal/ports/STM32/LLD/OTGv1/stm32_otg.h"
 967              		.file 55 "../e-puck2_main-processor/src/motors.h"
 968              		.file 56 "./actionUser.h"