ARM GAS  C:\Users\Valentin\AppData\Local\Temp\ccxKnJMY.s 			page 1


   1              		.cpu cortex-m4
   2              		.eabi_attribute 27, 1
   3              		.eabi_attribute 28, 1
   4              		.eabi_attribute 20, 1
   5              		.eabi_attribute 21, 1
   6              		.eabi_attribute 23, 3
   7              		.eabi_attribute 24, 1
   8              		.eabi_attribute 25, 1
   9              		.eabi_attribute 26, 1
  10              		.eabi_attribute 30, 2
  11              		.eabi_attribute 34, 1
  12              		.eabi_attribute 18, 4
  13              		.file	"VL53L0X.c"
  14              		.text
  15              	.Ltext0:
  16              		.cfi_sections	.debug_frame
  17              		.section	.text.VL53L0X_init,"ax",%progbits
  18              		.align	1
  19              		.p2align 4,,15
  20              		.global	VL53L0X_init
  21              		.syntax unified
  22              		.thumb
  23              		.thumb_func
  24              		.fpu fpv4-sp-d16
  25              		.type	VL53L0X_init, %function
  26              	VL53L0X_init:
  27              	.LFB261:
  28              		.file 1 "../e-puck2_main-processor/src/sensors/VL53L0X/VL53L0X.c"
  29              		.loc 1 56 0
  30              		.cfi_startproc
  31              		@ args = 0, pretend = 0, frame = 16
  32              		@ frame_needed = 0, uses_anonymous_args = 0
  33              	.LVL0:
  34 0000 30B5     		push	{r4, r5, lr}
  35              		.cfi_def_cfa_offset 12
  36              		.cfi_offset 4, -12
  37              		.cfi_offset 5, -8
  38              		.cfi_offset 14, -4
  39 0002 164C     		ldr	r4, .L8
  40 0004 85B0     		sub	sp, sp, #20
  41              		.cfi_def_cfa_offset 32
  42              		.loc 1 56 0
  43 0006 2368     		ldr	r3, [r4]
  44 0008 0393     		str	r3, [sp, #12]
  45              	.LVL1:
  46 000a 0546     		mov	r5, r0
  47              		.loc 1 69 0
  48 000c FFF7FEFF 		bl	VL53L0X_DataInit
  49              	.LVL2:
  50              		.loc 1 72 0
  51 0010 28B1     		cbz	r0, .L6
  52              	.LVL3:
  53              	.L2:
  54              		.loc 1 100 0
  55 0012 039A     		ldr	r2, [sp, #12]
  56 0014 2368     		ldr	r3, [r4]
  57 0016 9A42     		cmp	r2, r3
ARM GAS  C:\Users\Valentin\AppData\Local\Temp\ccxKnJMY.s 			page 2


  58 0018 1DD1     		bne	.L7
  59 001a 05B0     		add	sp, sp, #20
  60              		.cfi_remember_state
  61              		.cfi_def_cfa_offset 12
  62              		@ sp needed
  63 001c 30BD     		pop	{r4, r5, pc}
  64              	.LVL4:
  65              	.L6:
  66              		.cfi_restore_state
  67              		.loc 1 75 0
  68 001e 05F5AE71 		add	r1, r5, #348
  69 0022 2846     		mov	r0, r5
  70              	.LVL5:
  71 0024 FFF7FEFF 		bl	VL53L0X_GetDeviceInfo
  72              	.LVL6:
  73              		.loc 1 78 0
  74 0028 0028     		cmp	r0, #0
  75 002a F2D1     		bne	.L2
  76              		.loc 1 81 0
  77 002c 2846     		mov	r0, r5
  78              	.LVL7:
  79 002e FFF7FEFF 		bl	VL53L0X_StaticInit
  80              	.LVL8:
  81              		.loc 1 85 0
  82 0032 0028     		cmp	r0, #0
  83 0034 EDD1     		bne	.L2
  84              		.loc 1 88 0
  85 0036 0DF10502 		add	r2, sp, #5
  86 003a 02A9     		add	r1, sp, #8
  87 003c 2846     		mov	r0, r5
  88              	.LVL9:
  89 003e FFF7FEFF 		bl	VL53L0X_PerformRefSpadManagement
  90              	.LVL10:
  91              		.loc 1 92 0
  92 0042 0028     		cmp	r0, #0
  93 0044 E5D1     		bne	.L2
  94              	.LVL11:
  95              	.LBB14:
  96              	.LBB15:
  97              		.loc 1 95 0
  98 0046 2846     		mov	r0, r5
  99              	.LVL12:
 100 0048 0DF10702 		add	r2, sp, #7
 101 004c 0DF10601 		add	r1, sp, #6
 102 0050 FFF7FEFF 		bl	VL53L0X_PerformRefCalibration
 103              	.LVL13:
 104 0054 DDE7     		b	.L2
 105              	.LVL14:
 106              	.L7:
 107              	.LBE15:
 108              	.LBE14:
 109              		.loc 1 100 0
 110 0056 FFF7FEFF 		bl	__stack_chk_fail
 111              	.LVL15:
 112              	.L9:
 113 005a 00BF     		.align	2
 114              	.L8:
ARM GAS  C:\Users\Valentin\AppData\Local\Temp\ccxKnJMY.s 			page 3


 115 005c 00000000 		.word	__stack_chk_guard
 116              		.cfi_endproc
 117              	.LFE261:
 118              		.size	VL53L0X_init, .-VL53L0X_init
 119              		.section	.text.VL53L0X_configAccuracy,"ax",%progbits
 120              		.align	1
 121              		.p2align 4,,15
 122              		.global	VL53L0X_configAccuracy
 123              		.syntax unified
 124              		.thumb
 125              		.thumb_func
 126              		.fpu fpv4-sp-d16
 127              		.type	VL53L0X_configAccuracy, %function
 128              	VL53L0X_configAccuracy:
 129              	.LFB262:
 130              		.loc 1 102 0
 131              		.cfi_startproc
 132              		@ args = 0, pretend = 0, frame = 8
 133              		@ frame_needed = 0, uses_anonymous_args = 0
 134              	.LVL16:
 135 0000 70B5     		push	{r4, r5, r6, lr}
 136              		.cfi_def_cfa_offset 16
 137              		.cfi_offset 4, -16
 138              		.cfi_offset 5, -12
 139              		.cfi_offset 6, -8
 140              		.cfi_offset 14, -4
 141 0002 554D     		ldr	r5, .L29
 142 0004 82B0     		sub	sp, sp, #8
 143              		.cfi_def_cfa_offset 24
 144              		.loc 1 102 0
 145 0006 0C46     		mov	r4, r1
 146 0008 2B68     		ldr	r3, [r5]
 147 000a 0193     		str	r3, [sp, #4]
 148              	.LVL17:
 149              		.loc 1 108 0
 150 000c 0122     		movs	r2, #1
 151 000e 0021     		movs	r1, #0
 152              	.LVL18:
 153              		.loc 1 102 0
 154 0010 0646     		mov	r6, r0
 155              		.loc 1 108 0
 156 0012 FFF7FEFF 		bl	VL53L0X_SetLimitCheckEnable
 157              	.LVL19:
 158              		.loc 1 112 0
 159 0016 0028     		cmp	r0, #0
 160 0018 71D0     		beq	.L28
 161              		.loc 1 119 0
 162 001a 032C     		cmp	r4, #3
 163 001c 03D8     		bhi	.L12
 164 001e DFE804F0 		tbb	[pc, r4]
 165              	.L23:
 166 0022 04       		.byte	(.L18-.L23)/2
 167 0023 51       		.byte	(.L15-.L23)/2
 168 0024 25       		.byte	(.L16-.L23)/2
 169 0025 0B       		.byte	(.L17-.L23)/2
 170              		.p2align 1
 171              	.L12:
ARM GAS  C:\Users\Valentin\AppData\Local\Temp\ccxKnJMY.s 			page 4


 172              		.loc 1 193 0
 173 0026 6FF00300 		mvn	r0, #3
 174              	.LVL20:
 175              	.L18:
 176              		.loc 1 198 0
 177 002a 019A     		ldr	r2, [sp, #4]
 178 002c 2B68     		ldr	r3, [r5]
 179 002e 9A42     		cmp	r2, r3
 180 0030 40F08F80 		bne	.L25
 181 0034 02B0     		add	sp, sp, #8
 182              		.cfi_remember_state
 183              		.cfi_def_cfa_offset 16
 184              		@ sp needed
 185 0036 70BD     		pop	{r4, r5, r6, pc}
 186              	.LVL21:
 187              	.L17:
 188              		.cfi_restore_state
 189              		.loc 1 177 0
 190 0038 0028     		cmp	r0, #0
 191 003a F6D1     		bne	.L18
 192              		.loc 1 178 0
 193 003c 4FF48042 		mov	r2, #16384
 194 0040 0121     		movs	r1, #1
 195 0042 3046     		mov	r0, r6
 196              	.LVL22:
 197 0044 FFF7FEFF 		bl	VL53L0X_SetLimitCheckValue
 198              	.LVL23:
 199              		.loc 1 182 0
 200 0048 0028     		cmp	r0, #0
 201 004a EED1     		bne	.L18
 202              		.loc 1 183 0
 203 004c 0146     		mov	r1, r0
 204 004e 4FF40012 		mov	r2, #2097152
 205 0052 3046     		mov	r0, r6
 206              	.LVL24:
 207 0054 FFF7FEFF 		bl	VL53L0X_SetLimitCheckValue
 208              	.LVL25:
 209              		.loc 1 187 0
 210 0058 0028     		cmp	r0, #0
 211 005a E6D1     		bne	.L18
 212              		.loc 1 188 0
 213 005c 019A     		ldr	r2, [sp, #4]
 214 005e 2B68     		ldr	r3, [r5]
 215 0060 9A42     		cmp	r2, r3
 216 0062 76D1     		bne	.L25
 217 0064 3046     		mov	r0, r6
 218              	.LVL26:
 219 0066 47F23051 		movw	r1, #30000
 220 006a 43E0     		b	.L27
 221              	.LVL27:
 222              	.L16:
 223              		.loc 1 152 0
 224 006c 0028     		cmp	r0, #0
 225 006e DCD1     		bne	.L18
 226              		.loc 1 153 0
 227 0070 41F69912 		movw	r2, #6553
 228 0074 0121     		movs	r1, #1
ARM GAS  C:\Users\Valentin\AppData\Local\Temp\ccxKnJMY.s 			page 5


 229 0076 3046     		mov	r0, r6
 230              	.LVL28:
 231 0078 FFF7FEFF 		bl	VL53L0X_SetLimitCheckValue
 232              	.LVL29:
 233              		.loc 1 157 0
 234 007c 0028     		cmp	r0, #0
 235 007e D4D1     		bne	.L18
 236              		.loc 1 158 0
 237 0080 0146     		mov	r1, r0
 238 0082 4FF47012 		mov	r2, #3932160
 239 0086 3046     		mov	r0, r6
 240              	.LVL30:
 241 0088 FFF7FEFF 		bl	VL53L0X_SetLimitCheckValue
 242              	.LVL31:
 243              		.loc 1 162 0
 244 008c 0028     		cmp	r0, #0
 245 008e CCD1     		bne	.L18
 246              		.loc 1 163 0
 247 0090 48F2E801 		movw	r1, #33000
 248 0094 3046     		mov	r0, r6
 249              	.LVL32:
 250 0096 FFF7FEFF 		bl	VL53L0X_SetMeasurementTimingBudgetMicroSeconds
 251              	.LVL33:
 252              		.loc 1 166 0
 253 009a 0028     		cmp	r0, #0
 254 009c C5D1     		bne	.L18
 255              		.loc 1 167 0
 256 009e 0146     		mov	r1, r0
 257 00a0 1222     		movs	r2, #18
 258 00a2 3046     		mov	r0, r6
 259              	.LVL34:
 260 00a4 FFF7FEFF 		bl	VL53L0X_SetVcselPulsePeriod
 261              	.LVL35:
 262              		.loc 1 170 0
 263 00a8 0028     		cmp	r0, #0
 264 00aa BED1     		bne	.L18
 265              		.loc 1 171 0
 266 00ac 019A     		ldr	r2, [sp, #4]
 267 00ae 2B68     		ldr	r3, [r5]
 268 00b0 9A42     		cmp	r2, r3
 269 00b2 4ED1     		bne	.L25
 270 00b4 3046     		mov	r0, r6
 271              	.LVL36:
 272 00b6 0E22     		movs	r2, #14
 273 00b8 0121     		movs	r1, #1
 274              		.loc 1 198 0
 275 00ba 02B0     		add	sp, sp, #8
 276              		.cfi_remember_state
 277              		.cfi_def_cfa_offset 16
 278              		@ sp needed
 279 00bc BDE87040 		pop	{r4, r5, r6, lr}
 280              		.cfi_restore 14
 281              		.cfi_restore 6
 282              		.cfi_restore 5
 283              		.cfi_restore 4
 284              		.cfi_def_cfa_offset 0
 285              	.LVL37:
ARM GAS  C:\Users\Valentin\AppData\Local\Temp\ccxKnJMY.s 			page 6


 286              		.loc 1 171 0
 287 00c0 FFF7FEBF 		b	VL53L0X_SetVcselPulsePeriod
 288              	.LVL38:
 289              	.L15:
 290              		.cfi_restore_state
 291              		.loc 1 135 0
 292 00c4 0028     		cmp	r0, #0
 293 00c6 B0D1     		bne	.L18
 294              		.loc 1 136 0
 295 00c8 4FF48042 		mov	r2, #16384
 296 00cc 0121     		movs	r1, #1
 297 00ce 3046     		mov	r0, r6
 298              	.LVL39:
 299 00d0 FFF7FEFF 		bl	VL53L0X_SetLimitCheckValue
 300              	.LVL40:
 301              		.loc 1 140 0
 302 00d4 0028     		cmp	r0, #0
 303 00d6 A8D1     		bne	.L18
 304              		.loc 1 141 0
 305 00d8 0146     		mov	r1, r0
 306 00da 4FF49012 		mov	r2, #1179648
 307 00de 3046     		mov	r0, r6
 308              	.LVL41:
 309 00e0 FFF7FEFF 		bl	VL53L0X_SetLimitCheckValue
 310              	.LVL42:
 311              		.loc 1 145 0
 312 00e4 0028     		cmp	r0, #0
 313 00e6 A0D1     		bne	.L18
 314              		.loc 1 146 0
 315 00e8 019A     		ldr	r2, [sp, #4]
 316 00ea 2B68     		ldr	r3, [r5]
 317 00ec 9A42     		cmp	r2, r3
 318 00ee 30D1     		bne	.L25
 319 00f0 1A49     		ldr	r1, .L29+4
 320 00f2 3046     		mov	r0, r6
 321              	.LVL43:
 322              	.L27:
 323              		.loc 1 198 0
 324 00f4 02B0     		add	sp, sp, #8
 325              		.cfi_remember_state
 326              		.cfi_def_cfa_offset 16
 327              		@ sp needed
 328 00f6 BDE87040 		pop	{r4, r5, r6, lr}
 329              		.cfi_restore 14
 330              		.cfi_restore 6
 331              		.cfi_restore 5
 332              		.cfi_restore 4
 333              		.cfi_def_cfa_offset 0
 334              		.loc 1 188 0
 335 00fa FFF7FEBF 		b	VL53L0X_SetMeasurementTimingBudgetMicroSeconds
 336              	.LVL44:
 337              	.L28:
 338              		.cfi_restore_state
 339              		.loc 1 113 0
 340 00fe 0122     		movs	r2, #1
 341 0100 1146     		mov	r1, r2
 342 0102 3046     		mov	r0, r6
ARM GAS  C:\Users\Valentin\AppData\Local\Temp\ccxKnJMY.s 			page 7


 343              	.LVL45:
 344 0104 FFF7FEFF 		bl	VL53L0X_SetLimitCheckEnable
 345              	.LVL46:
 346              		.loc 1 119 0
 347 0108 032C     		cmp	r4, #3
 348 010a 8CD8     		bhi	.L12
 349 010c 01A3     		adr	r3, .L14
 350 010e 53F824F0 		ldr	pc, [r3, r4, lsl #2]
 351 0112 00BF     		.p2align 2
 352              	.L14:
 353 0114 25010000 		.word	.L13+1
 354 0118 C5000000 		.word	.L15+1
 355 011c 6D000000 		.word	.L16+1
 356 0120 39000000 		.word	.L17+1
 357              		.p2align 1
 358              	.L13:
 359              		.loc 1 122 0
 360 0124 0028     		cmp	r0, #0
 361 0126 80D1     		bne	.L18
 362              		.loc 1 123 0
 363 0128 0122     		movs	r2, #1
 364 012a 0321     		movs	r1, #3
 365 012c 3046     		mov	r0, r6
 366              	.LVL47:
 367 012e FFF7FEFF 		bl	VL53L0X_SetLimitCheckEnable
 368              	.LVL48:
 369              		.loc 1 127 0
 370 0132 0028     		cmp	r0, #0
 371 0134 7FF479AF 		bne	.L18
 372              		.loc 1 128 0
 373 0138 019A     		ldr	r2, [sp, #4]
 374 013a 2B68     		ldr	r3, [r5]
 375 013c 9A42     		cmp	r2, r3
 376 013e 08D1     		bne	.L25
 377 0140 3046     		mov	r0, r6
 378              	.LVL49:
 379 0142 40F6D402 		movw	r2, #2260
 380 0146 0321     		movs	r1, #3
 381              		.loc 1 198 0
 382 0148 02B0     		add	sp, sp, #8
 383              		.cfi_remember_state
 384              		.cfi_def_cfa_offset 16
 385              		@ sp needed
 386 014a BDE87040 		pop	{r4, r5, r6, lr}
 387              		.cfi_restore 14
 388              		.cfi_restore 6
 389              		.cfi_restore 5
 390              		.cfi_restore 4
 391              		.cfi_def_cfa_offset 0
 392              	.LVL50:
 393              		.loc 1 128 0
 394 014e FFF7FEBF 		b	VL53L0X_SetLimitCheckValue
 395              	.LVL51:
 396              	.L25:
 397              		.cfi_restore_state
 398              		.loc 1 198 0
 399 0152 FFF7FEFF 		bl	__stack_chk_fail
ARM GAS  C:\Users\Valentin\AppData\Local\Temp\ccxKnJMY.s 			page 8


 400              	.LVL52:
 401              	.L30:
 402 0156 00BF     		.align	2
 403              	.L29:
 404 0158 00000000 		.word	__stack_chk_guard
 405 015c 400D0300 		.word	200000
 406              		.cfi_endproc
 407              	.LFE262:
 408              		.size	VL53L0X_configAccuracy, .-VL53L0X_configAccuracy
 409              		.section	.text.VL53L0X_startMeasure,"ax",%progbits
 410              		.align	1
 411              		.p2align 4,,15
 412              		.global	VL53L0X_startMeasure
 413              		.syntax unified
 414              		.thumb
 415              		.thumb_func
 416              		.fpu fpv4-sp-d16
 417              		.type	VL53L0X_startMeasure, %function
 418              	VL53L0X_startMeasure:
 419              	.LFB263:
 420              		.loc 1 200 0
 421              		.cfi_startproc
 422              		@ args = 0, pretend = 0, frame = 8
 423              		@ frame_needed = 0, uses_anonymous_args = 0
 424              	.LVL53:
 425 0000 30B5     		push	{r4, r5, lr}
 426              		.cfi_def_cfa_offset 12
 427              		.cfi_offset 4, -12
 428              		.cfi_offset 5, -8
 429              		.cfi_offset 14, -4
 430 0002 0C4C     		ldr	r4, .L38
 431 0004 83B0     		sub	sp, sp, #12
 432              		.cfi_def_cfa_offset 24
 433              		.loc 1 200 0
 434 0006 2368     		ldr	r3, [r4]
 435 0008 0193     		str	r3, [sp, #4]
 436              	.LVL54:
 437 000a 0546     		mov	r5, r0
 438              		.loc 1 204 0
 439 000c FFF7FEFF 		bl	VL53L0X_SetDeviceMode
 440              	.LVL55:
 441              		.loc 1 207 0
 442 0010 019A     		ldr	r2, [sp, #4]
 443 0012 2368     		ldr	r3, [r4]
 444              		.loc 1 206 0
 445 0014 18B1     		cbz	r0, .L37
 446              	.LVL56:
 447              		.loc 1 211 0
 448 0016 9A42     		cmp	r2, r3
 449 0018 09D1     		bne	.L36
 450 001a 03B0     		add	sp, sp, #12
 451              		.cfi_remember_state
 452              		.cfi_def_cfa_offset 12
 453              		@ sp needed
 454 001c 30BD     		pop	{r4, r5, pc}
 455              	.LVL57:
 456              	.L37:
ARM GAS  C:\Users\Valentin\AppData\Local\Temp\ccxKnJMY.s 			page 9


 457              		.cfi_restore_state
 458              		.loc 1 207 0
 459 001e 9A42     		cmp	r2, r3
 460 0020 05D1     		bne	.L36
 461 0022 2846     		mov	r0, r5
 462              	.LVL58:
 463              		.loc 1 211 0
 464 0024 03B0     		add	sp, sp, #12
 465              		.cfi_remember_state
 466              		.cfi_def_cfa_offset 12
 467              		@ sp needed
 468 0026 BDE83040 		pop	{r4, r5, lr}
 469              		.cfi_restore 14
 470              		.cfi_restore 5
 471              		.cfi_restore 4
 472              		.cfi_def_cfa_offset 0
 473              	.LVL59:
 474              		.loc 1 207 0
 475 002a FFF7FEBF 		b	VL53L0X_StartMeasurement
 476              	.LVL60:
 477              	.L36:
 478              		.cfi_restore_state
 479              		.loc 1 211 0
 480 002e FFF7FEFF 		bl	__stack_chk_fail
 481              	.LVL61:
 482              	.L39:
 483 0032 00BF     		.align	2
 484              	.L38:
 485 0034 00000000 		.word	__stack_chk_guard
 486              		.cfi_endproc
 487              	.LFE263:
 488              		.size	VL53L0X_startMeasure, .-VL53L0X_startMeasure
 489              		.section	.text.VL53L0XThd,"ax",%progbits
 490              		.align	1
 491              		.p2align 4,,15
 492              		.syntax unified
 493              		.thumb
 494              		.thumb_func
 495              		.fpu fpv4-sp-d16
 496              		.type	VL53L0XThd, %function
 497              	VL53L0XThd:
 498              	.LFB260:
 499              		.loc 1 23 0
 500              		.cfi_startproc
 501              		@ args = 0, pretend = 0, frame = 8
 502              		@ frame_needed = 0, uses_anonymous_args = 0
 503              	.LVL62:
 504 0000 2DE9F043 		push	{r4, r5, r6, r7, r8, r9, lr}
 505              		.cfi_def_cfa_offset 28
 506              		.cfi_offset 4, -28
 507              		.cfi_offset 5, -24
 508              		.cfi_offset 6, -20
 509              		.cfi_offset 7, -16
 510              		.cfi_offset 8, -12
 511              		.cfi_offset 9, -8
 512              		.cfi_offset 14, -4
 513              	.LBB16:
ARM GAS  C:\Users\Valentin\AppData\Local\Temp\ccxKnJMY.s 			page 10


 514              	.LBB17:
 515              		.file 2 "../e-puck2_main-processor/ChibiOS//os/rt/include/chregistry.h"
 516              		.loc 2 135 0
 517 0004 214C     		ldr	r4, .L53
 518              	.LBE17:
 519              	.LBE16:
 520              		.loc 1 23 0
 521 0006 224F     		ldr	r7, .L53+4
 522              	.LBB20:
 523              	.LBB18:
 524              		.loc 2 135 0
 525 0008 A369     		ldr	r3, [r4, #24]
 526              	.LBE18:
 527              	.LBE20:
 528              		.loc 1 31 0
 529 000a 224E     		ldr	r6, .L53+8
 530              	.LBB21:
 531              	.LBB19:
 532              		.loc 2 135 0
 533 000c 224A     		ldr	r2, .L53+12
 534 000e 9A61     		str	r2, [r3, #24]
 535              	.LBE19:
 536              	.LBE21:
 537              		.loc 1 23 0
 538 0010 83B0     		sub	sp, sp, #12
 539              		.cfi_def_cfa_offset 40
 540              		.loc 1 23 0
 541 0012 3B68     		ldr	r3, [r7]
 542 0014 0193     		str	r3, [sp, #4]
 543              	.LVL63:
 544              		.loc 1 33 0
 545 0016 3046     		mov	r0, r6
 546              	.LVL64:
 547              		.loc 1 31 0
 548 0018 5223     		movs	r3, #82
 549 001a 86F8BF31 		strb	r3, [r6, #447]
 550              		.loc 1 33 0
 551 001e FFF7FEFF 		bl	VL53L0X_init
 552              	.LVL65:
 553              		.loc 1 35 0
 554 0022 50B9     		cbnz	r0, .L41
 555              		.loc 1 36 0
 556 0024 0221     		movs	r1, #2
 557 0026 3046     		mov	r0, r6
 558              	.LVL66:
 559 0028 FFF7FEFF 		bl	VL53L0X_configAccuracy
 560              	.LVL67:
 561              		.loc 1 42 0
 562 002c 1B4D     		ldr	r5, .L53+16
 563              		.loc 1 39 0
 564 002e 0121     		movs	r1, #1
 565 0030 3046     		mov	r0, r6
 566 0032 FFF7FEFF 		bl	VL53L0X_startMeasure
 567              	.LVL68:
 568              		.loc 1 42 0
 569 0036 0123     		movs	r3, #1
 570 0038 2B70     		strb	r3, [r5]
ARM GAS  C:\Users\Valentin\AppData\Local\Temp\ccxKnJMY.s 			page 11


 571              	.L41:
 572              	.LBB22:
 573              	.LBB23:
 574              		.file 3 "../e-puck2_main-processor/ChibiOS//os/rt/include/chthreads.h"
 575              		.loc 3 233 0
 576 003a A369     		ldr	r3, [r4, #24]
 577              	.LBE23:
 578              	.LBE22:
 579              		.loc 1 46 0
 580 003c 93F82130 		ldrb	r3, [r3, #33]	@ zero_extendqisi2
 581 0040 5A07     		lsls	r2, r3, #29
 582 0042 19D4     		bmi	.L40
 583 0044 154D     		ldr	r5, .L53+16
 584              	.LBB25:
 585              	.LBB26:
 586              		.loc 1 214 0
 587 0046 DFF85890 		ldr	r9, .L53+20
 588              	.LBE26:
 589              	.LBE25:
 590              		.loc 1 49 0
 591 004a DFF85880 		ldr	r8, .L53+24
 592 004e 07E0     		b	.L44
 593              	.L43:
 594              		.loc 1 51 0
 595 0050 6420     		movs	r0, #100
 596 0052 FFF7FEFF 		bl	chThdSleep
 597              	.LVL69:
 598              	.LBB28:
 599              	.LBB24:
 600              		.loc 3 233 0
 601 0056 A369     		ldr	r3, [r4, #24]
 602              	.LBE24:
 603              	.LBE28:
 604              		.loc 1 46 0
 605 0058 93F82130 		ldrb	r3, [r3, #33]	@ zero_extendqisi2
 606 005c 5B07     		lsls	r3, r3, #29
 607 005e 0BD4     		bmi	.L40
 608              	.L44:
 609              		.loc 1 47 0
 610 0060 2B78     		ldrb	r3, [r5]	@ zero_extendqisi2
 611 0062 002B     		cmp	r3, #0
 612 0064 F4D0     		beq	.L43
 613              	.LVL70:
 614              	.LBB29:
 615              	.LBB27:
 616              		.loc 1 214 0
 617 0066 4946     		mov	r1, r9
 618 0068 0A48     		ldr	r0, .L53+8
 619 006a FFF7FEFF 		bl	VL53L0X_GetRangingMeasurementData
 620              	.LVL71:
 621              	.LBE27:
 622              	.LBE29:
 623              		.loc 1 49 0
 624 006e B6F85830 		ldrh	r3, [r6, #88]
 625 0072 A8F80030 		strh	r3, [r8]	@ movhi
 626 0076 EBE7     		b	.L43
 627              	.L40:
ARM GAS  C:\Users\Valentin\AppData\Local\Temp\ccxKnJMY.s 			page 12


 628              		.loc 1 53 0
 629 0078 019A     		ldr	r2, [sp, #4]
 630 007a 3B68     		ldr	r3, [r7]
 631 007c 9A42     		cmp	r2, r3
 632 007e 02D1     		bne	.L52
 633 0080 03B0     		add	sp, sp, #12
 634              		.cfi_remember_state
 635              		.cfi_def_cfa_offset 28
 636              		@ sp needed
 637 0082 BDE8F083 		pop	{r4, r5, r6, r7, r8, r9, pc}
 638              	.L52:
 639              		.cfi_restore_state
 640 0086 FFF7FEFF 		bl	__stack_chk_fail
 641              	.LVL72:
 642              	.L54:
 643 008a 00BF     		.align	2
 644              	.L53:
 645 008c 00000000 		.word	ch
 646 0090 00000000 		.word	__stack_chk_guard
 647 0094 00000000 		.word	.LANCHOR0
 648 0098 00000000 		.word	.LC0
 649 009c 00000000 		.word	.LANCHOR1
 650 00a0 50000000 		.word	.LANCHOR0+80
 651 00a4 00000000 		.word	.LANCHOR2
 652              		.cfi_endproc
 653              	.LFE260:
 654              		.size	VL53L0XThd, .-VL53L0XThd
 655              		.section	.text.VL53L0X_getLastMeasure,"ax",%progbits
 656              		.align	1
 657              		.p2align 4,,15
 658              		.global	VL53L0X_getLastMeasure
 659              		.syntax unified
 660              		.thumb
 661              		.thumb_func
 662              		.fpu fpv4-sp-d16
 663              		.type	VL53L0X_getLastMeasure, %function
 664              	VL53L0X_getLastMeasure:
 665              	.LFB264:
 666              		.loc 1 213 0
 667              		.cfi_startproc
 668              		@ args = 0, pretend = 0, frame = 8
 669              		@ frame_needed = 0, uses_anonymous_args = 0
 670              	.LVL73:
 671 0000 00B5     		push	{lr}
 672              		.cfi_def_cfa_offset 4
 673              		.cfi_offset 14, -4
 674 0002 084B     		ldr	r3, .L60
 675 0004 83B0     		sub	sp, sp, #12
 676              		.cfi_def_cfa_offset 16
 677              		.loc 1 213 0
 678 0006 1A68     		ldr	r2, [r3]
 679 0008 0192     		str	r2, [sp, #4]
 680              		.loc 1 214 0
 681 000a 019A     		ldr	r2, [sp, #4]
 682 000c 1B68     		ldr	r3, [r3]
 683 000e 9A42     		cmp	r2, r3
 684 0010 06D1     		bne	.L59
ARM GAS  C:\Users\Valentin\AppData\Local\Temp\ccxKnJMY.s 			page 13


 685 0012 0146     		mov	r1, r0
 686 0014 5031     		adds	r1, r1, #80
 687              		.loc 1 216 0
 688 0016 03B0     		add	sp, sp, #12
 689              		.cfi_remember_state
 690              		.cfi_def_cfa_offset 4
 691              		@ sp needed
 692 0018 5DF804EB 		ldr	lr, [sp], #4
 693              		.cfi_restore 14
 694              		.cfi_def_cfa_offset 0
 695              		.loc 1 214 0
 696 001c FFF7FEBF 		b	VL53L0X_GetRangingMeasurementData
 697              	.LVL74:
 698              	.L59:
 699              		.cfi_restore_state
 700 0020 FFF7FEFF 		bl	__stack_chk_fail
 701              	.LVL75:
 702              	.L61:
 703              		.align	2
 704              	.L60:
 705 0024 00000000 		.word	__stack_chk_guard
 706              		.cfi_endproc
 707              	.LFE264:
 708              		.size	VL53L0X_getLastMeasure, .-VL53L0X_getLastMeasure
 709              		.section	.text.VL53L0X_stopMeasure,"ax",%progbits
 710              		.align	1
 711              		.p2align 4,,15
 712              		.global	VL53L0X_stopMeasure
 713              		.syntax unified
 714              		.thumb
 715              		.thumb_func
 716              		.fpu fpv4-sp-d16
 717              		.type	VL53L0X_stopMeasure, %function
 718              	VL53L0X_stopMeasure:
 719              	.LFB265:
 720              		.loc 1 218 0
 721              		.cfi_startproc
 722              		@ args = 0, pretend = 0, frame = 8
 723              		@ frame_needed = 0, uses_anonymous_args = 0
 724              	.LVL76:
 725 0000 00B5     		push	{lr}
 726              		.cfi_def_cfa_offset 4
 727              		.cfi_offset 14, -4
 728 0002 074B     		ldr	r3, .L67
 729 0004 83B0     		sub	sp, sp, #12
 730              		.cfi_def_cfa_offset 16
 731              		.loc 1 218 0
 732 0006 1A68     		ldr	r2, [r3]
 733 0008 0192     		str	r2, [sp, #4]
 734              		.loc 1 219 0
 735 000a 019A     		ldr	r2, [sp, #4]
 736 000c 1B68     		ldr	r3, [r3]
 737 000e 9A42     		cmp	r2, r3
 738 0010 04D1     		bne	.L66
 739              		.loc 1 220 0
 740 0012 03B0     		add	sp, sp, #12
 741              		.cfi_remember_state
ARM GAS  C:\Users\Valentin\AppData\Local\Temp\ccxKnJMY.s 			page 14


 742              		.cfi_def_cfa_offset 4
 743              		@ sp needed
 744 0014 5DF804EB 		ldr	lr, [sp], #4
 745              		.cfi_restore 14
 746              		.cfi_def_cfa_offset 0
 747              		.loc 1 219 0
 748 0018 FFF7FEBF 		b	VL53L0X_StopMeasurement
 749              	.LVL77:
 750              	.L66:
 751              		.cfi_restore_state
 752 001c FFF7FEFF 		bl	__stack_chk_fail
 753              	.LVL78:
 754              	.L68:
 755              		.align	2
 756              	.L67:
 757 0020 00000000 		.word	__stack_chk_guard
 758              		.cfi_endproc
 759              	.LFE265:
 760              		.size	VL53L0X_stopMeasure, .-VL53L0X_stopMeasure
 761              		.section	.text.VL53L0X_start,"ax",%progbits
 762              		.align	1
 763              		.p2align 4,,15
 764              		.global	VL53L0X_start
 765              		.syntax unified
 766              		.thumb
 767              		.thumb_func
 768              		.fpu fpv4-sp-d16
 769              		.type	VL53L0X_start, %function
 770              	VL53L0X_start:
 771              	.LFB266:
 772              		.loc 1 222 0
 773              		.cfi_startproc
 774              		@ args = 0, pretend = 0, frame = 8
 775              		@ frame_needed = 0, uses_anonymous_args = 0
 776 0000 30B5     		push	{r4, r5, lr}
 777              		.cfi_def_cfa_offset 12
 778              		.cfi_offset 4, -12
 779              		.cfi_offset 5, -8
 780              		.cfi_offset 14, -4
 781              		.loc 1 224 0
 782 0002 0D4B     		ldr	r3, .L74
 783              		.loc 1 222 0
 784 0004 0D4C     		ldr	r4, .L74+4
 785              		.loc 1 224 0
 786 0006 1D78     		ldrb	r5, [r3]	@ zero_extendqisi2
 787              		.loc 1 222 0
 788 0008 2368     		ldr	r3, [r4]
 789 000a 85B0     		sub	sp, sp, #20
 790              		.cfi_def_cfa_offset 32
 791              		.loc 1 222 0
 792 000c 0393     		str	r3, [sp, #12]
 793              		.loc 1 224 0
 794 000e 5DB9     		cbnz	r5, .L69
 795              		.loc 1 228 0
 796 0010 FFF7FEFF 		bl	i2c_start
 797              	.LVL79:
 798              		.loc 1 230 0
ARM GAS  C:\Users\Valentin\AppData\Local\Temp\ccxKnJMY.s 			page 15


 799 0014 0A4B     		ldr	r3, .L74+8
 800 0016 0095     		str	r5, [sp]
 801 0018 0A48     		ldr	r0, .L74+12
 802 001a 4A22     		movs	r2, #74
 803 001c 4FF45E71 		mov	r1, #888
 804 0020 FFF7FEFF 		bl	chThdCreateStatic
 805              	.LVL80:
 806 0024 084B     		ldr	r3, .L74+16
 807 0026 1860     		str	r0, [r3]
 808              	.L69:
 809              		.loc 1 235 0
 810 0028 039A     		ldr	r2, [sp, #12]
 811 002a 2368     		ldr	r3, [r4]
 812 002c 9A42     		cmp	r2, r3
 813 002e 01D1     		bne	.L73
 814 0030 05B0     		add	sp, sp, #20
 815              		.cfi_remember_state
 816              		.cfi_def_cfa_offset 12
 817              		@ sp needed
 818 0032 30BD     		pop	{r4, r5, pc}
 819              	.L73:
 820              		.cfi_restore_state
 821 0034 FFF7FEFF 		bl	__stack_chk_fail
 822              	.LVL81:
 823              	.L75:
 824              		.align	2
 825              	.L74:
 826 0038 00000000 		.word	.LANCHOR1
 827 003c 00000000 		.word	__stack_chk_guard
 828 0040 00000000 		.word	VL53L0XThd
 829 0044 00000000 		.word	.LANCHOR3
 830 0048 00000000 		.word	.LANCHOR4
 831              		.cfi_endproc
 832              	.LFE266:
 833              		.size	VL53L0X_start, .-VL53L0X_start
 834              		.section	.text.VL53L0X_stop,"ax",%progbits
 835              		.align	1
 836              		.p2align 4,,15
 837              		.global	VL53L0X_stop
 838              		.syntax unified
 839              		.thumb
 840              		.thumb_func
 841              		.fpu fpv4-sp-d16
 842              		.type	VL53L0X_stop, %function
 843              	VL53L0X_stop:
 844              	.LFB267:
 845              		.loc 1 237 0
 846              		.cfi_startproc
 847              		@ args = 0, pretend = 0, frame = 8
 848              		@ frame_needed = 0, uses_anonymous_args = 0
 849 0000 30B5     		push	{r4, r5, lr}
 850              		.cfi_def_cfa_offset 12
 851              		.cfi_offset 4, -12
 852              		.cfi_offset 5, -8
 853              		.cfi_offset 14, -4
 854              		.loc 1 238 0
 855 0002 0B4C     		ldr	r4, .L80
ARM GAS  C:\Users\Valentin\AppData\Local\Temp\ccxKnJMY.s 			page 16


 856              		.loc 1 237 0
 857 0004 0B4D     		ldr	r5, .L80+4
 858              		.loc 1 238 0
 859 0006 2068     		ldr	r0, [r4]
 860              		.loc 1 237 0
 861 0008 2B68     		ldr	r3, [r5]
 862 000a 83B0     		sub	sp, sp, #12
 863              		.cfi_def_cfa_offset 24
 864              		.loc 1 237 0
 865 000c 0193     		str	r3, [sp, #4]
 866              		.loc 1 238 0
 867 000e FFF7FEFF 		bl	chThdTerminate
 868              	.LVL82:
 869              		.loc 1 239 0
 870 0012 2068     		ldr	r0, [r4]
 871 0014 FFF7FEFF 		bl	chThdWait
 872              	.LVL83:
 873              		.loc 1 242 0
 874 0018 0199     		ldr	r1, [sp, #4]
 875 001a 2A68     		ldr	r2, [r5]
 876              		.loc 1 241 0
 877 001c 0648     		ldr	r0, .L80+8
 878              		.loc 1 240 0
 879 001e 0023     		movs	r3, #0
 880              		.loc 1 242 0
 881 0020 9142     		cmp	r1, r2
 882              		.loc 1 240 0
 883 0022 2360     		str	r3, [r4]
 884              		.loc 1 241 0
 885 0024 0370     		strb	r3, [r0]
 886              		.loc 1 242 0
 887 0026 01D1     		bne	.L79
 888 0028 03B0     		add	sp, sp, #12
 889              		.cfi_remember_state
 890              		.cfi_def_cfa_offset 12
 891              		@ sp needed
 892 002a 30BD     		pop	{r4, r5, pc}
 893              	.L79:
 894              		.cfi_restore_state
 895 002c FFF7FEFF 		bl	__stack_chk_fail
 896              	.LVL84:
 897              	.L81:
 898              		.align	2
 899              	.L80:
 900 0030 00000000 		.word	.LANCHOR4
 901 0034 00000000 		.word	__stack_chk_guard
 902 0038 00000000 		.word	.LANCHOR1
 903              		.cfi_endproc
 904              	.LFE267:
 905              		.size	VL53L0X_stop, .-VL53L0X_stop
 906              		.section	.text.VL53L0X_get_dist_mm,"ax",%progbits
 907              		.align	1
 908              		.p2align 4,,15
 909              		.global	VL53L0X_get_dist_mm
 910              		.syntax unified
 911              		.thumb
 912              		.thumb_func
ARM GAS  C:\Users\Valentin\AppData\Local\Temp\ccxKnJMY.s 			page 17


 913              		.fpu fpv4-sp-d16
 914              		.type	VL53L0X_get_dist_mm, %function
 915              	VL53L0X_get_dist_mm:
 916              	.LFB268:
 917              		.loc 1 244 0
 918              		.cfi_startproc
 919              		@ args = 0, pretend = 0, frame = 8
 920              		@ frame_needed = 0, uses_anonymous_args = 0
 921 0000 00B5     		push	{lr}
 922              		.cfi_def_cfa_offset 4
 923              		.cfi_offset 14, -4
 924 0002 074B     		ldr	r3, .L86
 925              		.loc 1 245 0
 926 0004 0749     		ldr	r1, .L86+4
 927              		.loc 1 244 0
 928 0006 1A68     		ldr	r2, [r3]
 929              		.loc 1 246 0
 930 0008 0888     		ldrh	r0, [r1]
 931              		.loc 1 244 0
 932 000a 83B0     		sub	sp, sp, #12
 933              		.cfi_def_cfa_offset 16
 934              		.loc 1 244 0
 935 000c 0192     		str	r2, [sp, #4]
 936              		.loc 1 246 0
 937 000e 019A     		ldr	r2, [sp, #4]
 938 0010 1B68     		ldr	r3, [r3]
 939 0012 9A42     		cmp	r2, r3
 940 0014 02D1     		bne	.L85
 941 0016 03B0     		add	sp, sp, #12
 942              		.cfi_remember_state
 943              		.cfi_def_cfa_offset 4
 944              		@ sp needed
 945 0018 5DF804FB 		ldr	pc, [sp], #4
 946              	.L85:
 947              		.cfi_restore_state
 948 001c FFF7FEFF 		bl	__stack_chk_fail
 949              	.LVL85:
 950              	.L87:
 951              		.align	2
 952              	.L86:
 953 0020 00000000 		.word	__stack_chk_guard
 954 0024 00000000 		.word	.LANCHOR2
 955              		.cfi_endproc
 956              	.LFE268:
 957              		.size	VL53L0X_get_dist_mm, .-VL53L0X_get_dist_mm
 958              		.section	.bss.VL53L0X_configured,"aw",%nobits
 959              		.set	.LANCHOR1,. + 0
 960              		.type	VL53L0X_configured, %object
 961              		.size	VL53L0X_configured, 1
 962              	VL53L0X_configured:
 963 0000 00       		.space	1
 964              		.section	.bss.device.11725,"aw",%nobits
 965              		.align	2
 966              		.set	.LANCHOR0,. + 0
 967              		.type	device.11725, %object
 968              		.size	device.11725, 448
 969              	device.11725:
ARM GAS  C:\Users\Valentin\AppData\Local\Temp\ccxKnJMY.s 			page 18


 970 0000 00000000 		.space	448
 970      00000000 
 970      00000000 
 970      00000000 
 970      00000000 
 971              		.section	.bss.distThd,"aw",%nobits
 972              		.align	2
 973              		.set	.LANCHOR4,. + 0
 974              		.type	distThd, %object
 975              		.size	distThd, 4
 976              	distThd:
 977 0000 00000000 		.space	4
 978              		.section	.bss.dist_mm,"aw",%nobits
 979              		.align	1
 980              		.set	.LANCHOR2,. + 0
 981              		.type	dist_mm, %object
 982              		.size	dist_mm, 2
 983              	dist_mm:
 984 0000 0000     		.space	2
 985              		.section	.bss.waVL53L0XThd,"aw",%nobits
 986              		.align	3
 987              		.set	.LANCHOR3,. + 0
 988              		.type	waVL53L0XThd, %object
 989              		.size	waVL53L0XThd, 888
 990              	waVL53L0XThd:
 991 0000 00000000 		.space	888
 991      00000000 
 991      00000000 
 991      00000000 
 991      00000000 
 992              		.section	.rodata.VL53L0XThd.str1.4,"aMS",%progbits,1
 993              		.align	2
 994              	.LC0:
 995 0000 564C3533 		.ascii	"VL53L0x Thd\000"
 995      4C307820 
 995      54686400 
 996              		.text
 997              	.Letext0:
 998              		.file 4 "c:\\users\\valentin\\desktop\\eclipse_e-puck2\\tools\\gcc-arm-none-eabi-7-2017-q4-major-w
 999              		.file 5 "c:\\users\\valentin\\desktop\\eclipse_e-puck2\\tools\\gcc-arm-none-eabi-7-2017-q4-major-w
 1000              		.file 6 "c:\\users\\valentin\\desktop\\eclipse_e-puck2\\tools\\gcc-arm-none-eabi-7-2017-q4-major-w
 1001              		.file 7 "../e-puck2_main-processor/ChibiOS//os/rt/ports/ARMCMx/compilers/GCC/chtypes.h"
 1002              		.file 8 "../e-puck2_main-processor/ChibiOS//os/rt/include/chsystypes.h"
 1003              		.file 9 "../e-puck2_main-processor/ChibiOS//os/rt/include/chschd.h"
 1004              		.file 10 "../e-puck2_main-processor/ChibiOS//os/ext/CMSIS/include/core_cm4.h"
 1005              		.file 11 "../e-puck2_main-processor/ChibiOS//os/ext/CMSIS/ST/system_stm32f4xx.h"
 1006              		.file 12 "../e-puck2_main-processor/ChibiOS//os/ext/CMSIS/ST/stm32f407xx.h"
 1007              		.file 13 "../e-puck2_main-processor/ChibiOS//os/rt/ports/ARMCMx/chcore.h"
 1008              		.file 14 "../e-puck2_main-processor/ChibiOS//os/rt/ports/ARMCMx/chcore_v7m.h"
 1009              		.file 15 "../e-puck2_main-processor/ChibiOS//os/rt/include/chdebug.h"
 1010              		.file 16 "../e-puck2_main-processor/ChibiOS//os/rt/include/chtm.h"
 1011              		.file 17 "../e-puck2_main-processor/ChibiOS//os/rt/include/chstats.h"
 1012              		.file 18 "../e-puck2_main-processor/ChibiOS//os/rt/include/chsem.h"
 1013              		.file 19 "../e-puck2_main-processor/ChibiOS//os/rt/include/chmtx.h"
 1014              		.file 20 "../e-puck2_main-processor/ChibiOS//os/rt/include/chevents.h"
 1015              		.file 21 "../e-puck2_main-processor/ChibiOS//os/rt/include/chqueues.h"
 1016              		.file 22 "../e-puck2_main-processor/ChibiOS//os/hal/ports/STM32/STM32F4xx/stm32_dma.h"
ARM GAS  C:\Users\Valentin\AppData\Local\Temp\ccxKnJMY.s 			page 19


 1017              		.file 23 "../e-puck2_main-processor/ChibiOS//os/hal/include/hal_ioblock.h"
 1018              		.file 24 "../e-puck2_main-processor/ChibiOS//os/hal/ports/STM32/LLD/GPIOv2/pal_lld.h"
 1019              		.file 25 "../e-puck2_main-processor/ChibiOS//os/hal/include/adc.h"
 1020              		.file 26 "../e-puck2_main-processor/ChibiOS//os/hal/ports/STM32/STM32F4xx/adc_lld.h"
 1021              		.file 27 "../e-puck2_main-processor/ChibiOS//os/hal/include/can.h"
 1022              		.file 28 "../e-puck2_main-processor/ChibiOS//os/hal/ports/STM32/LLD/can_lld.h"
 1023              		.file 29 "../e-puck2_main-processor/ChibiOS//os/hal/include/dac.h"
 1024              		.file 30 "../e-puck2_main-processor/ChibiOS//os/hal/ports/STM32/LLD/DACv1/dac_lld.h"
 1025              		.file 31 "../e-puck2_main-processor/ChibiOS//os/hal/include/ext.h"
 1026              		.file 32 "../e-puck2_main-processor/ChibiOS//os/hal/ports/STM32/LLD/ext_lld.h"
 1027              		.file 33 "../e-puck2_main-processor/ChibiOS//os/hal/include/gpt.h"
 1028              		.file 34 "../e-puck2_main-processor/ChibiOS//os/hal/ports/STM32/LLD/TIMv1/gpt_lld.h"
 1029              		.file 35 "../e-puck2_main-processor/ChibiOS//os/hal/ports/STM32/LLD/TIMv1/stm32_tim.h"
 1030              		.file 36 "../e-puck2_main-processor/ChibiOS//os/hal/include/i2c.h"
 1031              		.file 37 "../e-puck2_main-processor/ChibiOS//os/hal/ports/STM32/LLD/I2Cv1/i2c_lld.h"
 1032              		.file 38 "../e-puck2_main-processor/ChibiOS//os/hal/include/i2s.h"
 1033              		.file 39 "../e-puck2_main-processor/ChibiOS//os/hal/ports/STM32/LLD/SPIv1/i2s_lld.h"
 1034              		.file 40 "../e-puck2_main-processor/ChibiOS//os/hal/include/pwm.h"
 1035              		.file 41 "../e-puck2_main-processor/ChibiOS//os/hal/ports/STM32/LLD/TIMv1/pwm_lld.h"
 1036              		.file 42 "../e-puck2_main-processor/ChibiOS//os/hal/include/serial.h"
 1037              		.file 43 "../e-puck2_main-processor/ChibiOS//os/hal/ports/STM32/LLD/USARTv1/serial_lld.h"
 1038              		.file 44 "../e-puck2_main-processor/ChibiOS//os/hal/include/sdc.h"
 1039              		.file 45 "../e-puck2_main-processor/ChibiOS//os/hal/ports/STM32/LLD/sdc_lld.h"
 1040              		.file 46 "../e-puck2_main-processor/ChibiOS//os/hal/include/spi.h"
 1041              		.file 47 "../e-puck2_main-processor/ChibiOS//os/hal/ports/STM32/LLD/SPIv1/spi_lld.h"
 1042              		.file 48 "../e-puck2_main-processor/ChibiOS//os/hal/include/usb.h"
 1043              		.file 49 "../e-puck2_main-processor/ChibiOS//os/hal/ports/STM32/LLD/OTGv1/usb_lld.h"
 1044              		.file 50 "../e-puck2_main-processor/ChibiOS//os/hal/ports/STM32/LLD/OTGv1/stm32_otg.h"
 1045              		.file 51 "../e-puck2_main-processor/ChibiOS//os/hal/include/serial_usb.h"
 1046              		.file 52 "../e-puck2_main-processor/src/sensors/VL53L0X/Api/core/inc/vl53l0x_types.h"
 1047              		.file 53 "../e-puck2_main-processor/src/sensors/VL53L0X/Api/core/inc/vl53l0x_device.h"
 1048              		.file 54 "../e-puck2_main-processor/src/sensors/VL53L0X/Api/core/inc/vl53l0x_def.h"
 1049              		.file 55 "c:\\users\\valentin\\desktop\\eclipse_e-puck2\\tools\\gcc-arm-none-eabi-7-2017-q4-major-
 1050              		.file 56 "c:\\users\\valentin\\desktop\\eclipse_e-puck2\\tools\\gcc-arm-none-eabi-7-2017-q4-major-
 1051              		.file 57 "c:\\users\\valentin\\desktop\\eclipse_e-puck2\\tools\\gcc-arm-none-eabi-7-2017-q4-major-
 1052              		.file 58 "../e-puck2_main-processor/src/sensors/VL53L0X/Api/core/inc/../../platform/inc/vl53l0x_pl
 1053              		.file 59 "../e-puck2_main-processor/ChibiOS//os/various/shell.h"
 1054              		.file 60 "../e-puck2_main-processor/src/usbcfg.h"
 1055              		.file 61 "../e-puck2_main-processor/src/i2c_bus.h"
 1056              		.file 62 "../e-puck2_main-processor/src/sensors/VL53L0X/Api/core/inc/vl53l0x_api.h"